******************************************************************************
            TI ARM Clang Linker Unix v2.1.2                    
******************************************************************************
>> Linked Fri Feb 24 09:07:59 2023

OUTPUT FILE NAME:   <sbl_uart_uniflash_stage1.release.out>
ENTRY POINT SYMBOL: "_vectors_sbl"  address: 43c00040


MEMORY CONFIGURATION

         name            origin    length      used     unused   attr    fill
----------------------  --------  ---------  --------  --------  ----  --------
  HSM_RAM_VECS          43c00000   00000100  00000080  00000080  RWIX
  HSM_RAM               43c00100   0003c700  0002a550  000121b0  RWIX
  DDR                   80000000   00800000  00800000  00000000  RWIX


SEGMENT ALLOCATION MAP

run origin  load origin   length   init length attrs members
----------  ----------- ---------- ----------- ----- -------
43c00000    43c00000    00000080   00000080    r-x
  43c00000    43c00000    00000080   00000080    r-x .vectors
43c00100    43c00100    00011f58   00011f58    r-x
  43c00100    43c00100    00010830   00010830    r-x .text
  43c10930    43c10930    00001728   00001728    r-- .const
43c12060    43c12060    00000f60   00000f60    r-x
  43c12060    43c12060    00000790   00000790    r-x .text.hwi
  43c127f0    43c127f0    00000460   00000460    r-x .text.cache
  43c12c50    43c12c50    00000240   00000240    r-x .text.mpu
  43c12e90    43c12e90    00000130   00000130    r-x .text.boot
43c12fc0    43c12fc0    00003500   00003500    rw-
  43c12fc0    43c12fc0    00003500   00003500    rw- .data
43c164c0    43c164c0    00003c20   00003c20    r--
  43c164c0    43c164c0    00003c20   00003c20    r-- .rodata
43c1a100    43c1a100    00000800   00000800    r--
  43c1a100    43c1a100    00000800   00000800    r-- .boardcfg_data
43c1a900    43c1a900    0000e950   00000000    rw-
  43c1a900    43c1a900    00008000   00000000    rw- .sysmem
  43c22900    43c22900    00004000   00000000    rw- .stack
  43c26900    43c26900    00002950   00000000    rw- .bss
43c29250    43c29250    00001400   00000000    r--
  43c29250    43c29250    00001000   00000000    r-- .irqstack
  43c2a250    43c2a250    00000100   00000000    r-- .fiqstack
  43c2a350    43c2a350    00000100   00000000    r-- .svcstack
  43c2a450    43c2a450    00000100   00000000    r-- .abortstack
  43c2a550    43c2a550    00000100   00000000    r-- .undefinedstack


SECTION ALLOCATION MAP

 output                                  attributes/
section   page    origin      length       input sections
--------  ----  ----------  ----------   ----------------
.vectors   0    43c00000    00000080     
                  43c00000    00000040     nortos.am62x.r5f.ti-arm-clang.release.lib : HwiP_armv7r_vectors_nortos_asm.obj (.vectors)
                  43c00040    00000040                                               : HwiP_armv7r_vectors_nortos_sbl_asm.obj (.vectors)

.text      0    43c00100    00010830     
                  43c00100    00000754     rm_pm_hal_sbl.am62x.r5f.ti-arm-clang.release.lib : pll.obj (.text.pll_calc)
                  43c00854    000006d8                                                      : rm_udmap.obj (.text.rm_udmap_tx_ch_cfg)
                  43c00f2c    00000618                                                      : rm_udmap.obj (.text.rm_udmap_rx_ch_cfg)
                  43c01544    0000000c                                                      : device_prepare.obj (.text.device_prepare_nonexclusive)
                  43c01550    00000596     nortos.am62x.r5f.ti-arm-clang.release.lib : printf.obj (.text._vsnprintf)
                  43c01ae6    0000000a     rm_pm_hal_sbl.am62x.r5f.ti-arm-clang.release.lib : clk.obj (.text.clk_notify_children_freq)
                  43c01af0    000004ea     drivers.am62x.r5f.ti-arm-clang.release.lib : uart_v0.obj (.text.UART_open)
                  43c01fda    00000002     rm_pm_hal_sbl.am62x.r5f.ti-arm-clang.release.lib : ioremap.obj (.text.ioremap_internal)
                  43c01fdc    00000428                                                      : rm_ra.obj (.text.rm_ra_cfg)
                  43c02404    00000394                                                      : psc.obj (.text.lpsc_module_sync_state)
                  43c02798    00000008                                                      : clk.obj (.text.clk_freq_change_allow)
                  43c027a0    00000388     nortos.am62x.r5f.ti-arm-clang.release.lib : printf.obj (.text._ftoa)
                  43c02b28    00000008     rm_pm_hal_sbl.am62x.r5f.ti-arm-clang.release.lib : clk.obj (.text.clk_freq_change_block)
                  43c02b30    00000310     nortos.am62x.r5f.ti-arm-clang.release.lib : printf.obj (.text._etoa)
                  43c02e40    000002f8     rm_pm_hal_sbl.am62x.r5f.ti-arm-clang.release.lib : clk_div.obj (.text.clk_div_set_freq)
                  43c03138    000002f8                                                      : rm_udmap.obj (.text.rm_udmap_flow_cfg)
                  43c03430    000002f0     drivers.am62x.r5f.ti-arm-clang.release.lib : ddr.obj (.text.DDR_init)
                  43c03720    000002e8     rm_pm_hal_sbl.am62x.r5f.ti-arm-clang.release.lib : clk_pll_16fft.obj (.text.clk_pll_16fft_internal_set_freq)
                  43c03a08    000002c8     sciclient_direct_sbl.am62x.r5f.ti-arm-clang.release.lib : sciclient.obj (.text.Sciclient_serviceSecureProxy)
                  43c03cd0    00000290     drivers.am62x.r5f.ti-arm-clang.release.lib : uart_v0.obj (.text.UART_read)
                  43c03f60    00000282     rm_pm_hal_sbl.am62x.r5f.ti-arm-clang.release.lib : pll.obj (.text.pll_consider)
                  43c041e2    00000002                                                      : mmr_lock.obj (.text.mmr_lock_all)
                  43c041e4    00000260                                                      : clk_pll_16fft.obj (.text.clk_pll_16fft_init)
                  43c04444    00000244                                                      : device_clk.obj (.text.__device_clk_set_freq)
                  43c04688    00000228                                                      : device.obj (.text.devices_init)
                  43c048b0    00000224                                                      : rm_irq.obj (.text.rm_irq_release)
                  43c04ad4    0000000c     libc.a : memory.c.obj (.text.malloc)
                  43c04ae0    0000021c     drivers.am62x.r5f.ti-arm-clang.release.lib : uart_v0.obj (.text.UART_masterIsr)
                  43c04cfc    00000004     libc.a : _lock.c.obj (.text._nop)
                  43c04d00    0000020a     drivers.am62x.r5f.ti-arm-clang.release.lib : xmodem.obj (.text.xmodemReceive)
                  43c04f0a    00000006     rm_pm_hal_sbl.am62x.r5f.ti-arm-clang.release.lib : clk_pll_16fft.obj (.text.pll_16fft_bin)
                  43c04f10    000001fe     drivers.am62x.r5f.ti-arm-clang.release.lib : uart_v0.obj (.text.UART_write)
                  43c0510e    00000002     rm_pm_hal_sbl.am62x.r5f.ti-arm-clang.release.lib : map.obj (.text.u32_get_bytes)
                  43c05110    000001fc                                                      : rm_irq.obj (.text.rm_irq_set)
                  43c0530c    00000004                                                      : clk_fixed.obj (.text.clk_fixed_get_state)
                  43c05310    000001f4     drivers.am62x.r5f.ti-arm-clang.release.lib : xmodem.obj (.text.xmodemTransmit)
                  43c05504    000001cc     sciclient_direct_sbl.am62x.r5f.ti-arm-clang.release.lib : sciclient_direct.obj (.text.Sciclient_service)
                  43c056d0    000001c8                                                             : sciclient.obj (.text.Sciclient_init)
                  43c05898    00000008     rm_pm_hal_sbl.am62x.r5f.ti-arm-clang.release.lib : psc.obj (.text.lpsc_module_get)
                  43c058a0    000001c0     nortos.am62x.r5f.ti-arm-clang.release.lib : TimerP.obj (.text.TimerP_setup)
                  43c05a60    000001b8     libc.a : memory.c.obj (.text.aligned_alloc)
                  43c05c18    000001b8            : memory.c.obj (.text.free)
                  43c05dd0    000001a8     rm_pm_hal_sbl.am62x.r5f.ti-arm-clang.release.lib : psc.obj (.text.psc_pre_init)
                  43c05f78    00000008                                                      : psc.obj (.text.lpsc_module_get_module_reset)
                  43c05f80    000001a0     drivers.am62x.r5f.ti-arm-clang.release.lib : ddr_soc.obj (.text.DDR_programPLL)
                  43c06120    0000017c                                                : bootloader.obj (.text.Bootloader_verifyMulticoreImage)
                  43c0629c    00000164     rm_pm_hal_sbl.am62x.r5f.ti-arm-clang.release.lib : rm_udmap.obj (.text.rm_udmap_gcfg_cfg)
                  43c06400    00000160                                                      : device_process.obj (.text.set_device_handler)
                  43c06560    00000158                                                      : rm_ir.obj (.text.rm_ir_configure)
                  43c066b8    0000014c     sciclient_direct_sbl.am62x.r5f.ti-arm-clang.release.lib : uart_print.obj (.text.UART_printf)
                  43c06804    00000146                                                             : sciclient_direct.obj (.text.Sciclient_ProcessPmMessage)
                  43c0694a    00000004     rm_pm_hal_sbl.am62x.r5f.ti-arm-clang.release.lib : clk_dev.obj (.text.clk_from_device_notify_freq)
                  43c0694e    00000002     --HOLE-- [fill = 0]
                  43c06950    00000146     drivers.am62x.r5f.ti-arm-clang.release.lib : uart_v0.obj (.text.UART_close)
                  43c06a96    00000002     --HOLE-- [fill = 0]
                  43c06a98    00000144     rm_pm_hal_sbl.am62x.r5f.ti-arm-clang.release.lib : clk.obj (.text.clk_init)
                  43c06bdc    00000144     libc.a : setvbuf.c.obj (.text.setvbuf)
                  43c06d20    0000013e     drivers.am62x.r5f.ti-arm-clang.release.lib : soc.obj (.text.SOC_moduleSetClockFrequency)
                  43c06e5e    00000002     --HOLE-- [fill = 0]
                  43c06e60    00000132     nortos.am62x.r5f.ti-arm-clang.release.lib : printf.obj (.text._ntoa_format)
                  43c06f92    00000002     --HOLE-- [fill = 0]
                  43c06f94    00000128     rm_pm_hal_sbl.am62x.r5f.ti-arm-clang.release.lib : rm_ra.obj (.text.ra_get_ring_evt)
                  43c070bc    00000124                                                      : clk_pll_16fft.obj (.text.clk_pll_16fft_get_freq)
                  43c071e0    00000124                                                      : rm_ra.obj (.text.ra_set_ring_evt)
                  43c07304    00000122                                                      : rm_udmap.obj (.text.udmap_oes_index_validate)
                  43c07426    0000000a                                                      : clk_div.obj (.text.readl)
                  43c07430    00000120     drivers.am62x.r5f.ti-arm-clang.release.lib : lpddr4_16bit.obj (.text.LPDDR4_CheckCtlInterrupt)
                  43c07550    00000120     rm_pm_hal_sbl.am62x.r5f.ti-arm-clang.release.lib : rm_udmap.obj (.text.udmap_get_ch_evt)
                  43c07670    00000118                                                      : psc.obj (.text.psc_uninit)
                  43c07788    00000118     libclang_rt.builtins.a : udivmoddi4.S.obj (.text)
                  43c078a0    00000112     drivers.am62x.r5f.ti-arm-clang.release.lib : lpddr4_16bit.obj (.text.LPDDR4_AckCtlInterrupt)
                  43c079b2    0000010c     rm_pm_hal_sbl.am62x.r5f.ti-arm-clang.release.lib : rm_ia.obj (.text.rm_ia_vint_map)
                  43c07abe    00000002     --HOLE-- [fill = 0]
                  43c07ac0    00000104                                                      : device_clk.obj (.text.device_clk_get_parent)
                  43c07bc4    00000100     sciclient_direct_sbl.am62x.r5f.ti-arm-clang.release.lib : sciclient_direct.obj (.text.Sciclient_ProcessRmMessage)
                  43c07cc4    00000100     rm_pm_hal_sbl.am62x.r5f.ti-arm-clang.release.lib : rm_core.obj (.text.rm_core_get_resource_range)
                  43c07dc4    0000000c                                                      : sys-reset.obj (.text.sys_reset_handler_register)
                  43c07dd0    000000fc     nortos.am62x.r5f.ti-arm-clang.release.lib : ClockP_nortos_r5.obj (.text.ClockP_init)
                  43c07ecc    00000004     rm_pm_hal_sbl.am62x.r5f.ti-arm-clang.release.lib : clk_dev.obj (.text.clk_from_device_set_state)
                  43c07ed0    000000fc     main.obj (.text.main)
                  43c07fcc    000000f8     rm_pm_hal_sbl.am62x.r5f.ti-arm-clang.release.lib : rm_udmap.obj (.text.udmap_set_ch_evt)
                  43c080c4    000000f2                                                      : rm_ia.obj (.text.rm_ia_vint_unmap)
                  43c081b6    00000002     --HOLE-- [fill = 0]
                  43c081b8    000000ec                                                      : clk_div.obj (.text.clk_div_notify_freq)
                  43c082a4    000000e8     libc.a : fputc.c.obj (.text.fputc)
                  43c0838c    000000e8     rm_pm_hal_sbl.am62x.r5f.ti-arm-clang.release.lib : rm_udmap.obj (.text.rm_udmap_is_managed_resasg_utype)
                  43c08474    000000e6                                                      : rm_ia.obj (.text.ia_validate_evt)
                  43c0855a    00000002     --HOLE-- [fill = 0]
                  43c0855c    000000e4                                                      : psc.obj (.text.psc_pd_get)
                  43c08640    000000e0                                                      : clk.obj (.text.clk_set_freq)
                  43c08720    000000e0                                                      : device_clk.obj (.text.device_clk_set_gated)
                  43c08800    000000dc                                                      : psc.obj (.text.lpsc_module_wait)
                  43c088dc    000000dc                                                      : rm_ra.obj (.text.rm_ra_mon_cfg)
                  43c089b8    00000008                                                      : psc.obj (.text.lpsc_module_put)
                  43c089c0    000000d4     drivers.am62x.r5f.ti-arm-clang.release.lib : bootloader.obj (.text.Bootloader_rprcImageLoad)
                  43c08a94    000000d0     rm_pm_hal_sbl.am62x.r5f.ti-arm-clang.release.lib : psc.obj (.text.lpsc_module_put_internal)
                  43c08b64    000000d0                                                      : rm_udmap.obj (.text.rm_udmap_flow_delegate)
                  43c08c34    000000cc                                                      : rm_ia.obj (.text.ia_set_oes_evt)
                  43c08d00    000000cc                                                      : psc.obj (.text.psc_pd_put)
                  43c08dcc    000000c8     libc.a : getdevice.c.obj (.text.getdevice)
                  43c08e94    000000c8     rm_pm_hal_sbl.am62x.r5f.ti-arm-clang.release.lib : rm_ia.obj (.text.rm_ia_init)
                  43c08f5c    000000c6                                                      : rm_ia.obj (.text.ia_get_oes_evt)
                  43c09022    00000002     --HOLE-- [fill = 0]
                  43c09024    000000c4                                                      : device_clk.obj (.text.device_clk_set_parent)
                  43c090e8    000000c4                                                      : clock.obj (.text.query_freq_handler)
                  43c091ac    000000c4                                                      : clock.obj (.text.set_freq_handler)
                  43c09270    000000c2     drivers.am62x.r5f.ti-arm-clang.release.lib : bootloader.obj (.text.Bootloader_parseMultiCoreAppImage)
                  43c09332    00000002     --HOLE-- [fill = 0]
                  43c09334    000000c0     sciclient_direct_sbl.am62x.r5f.ti-arm-clang.release.lib : sciclient_direct.obj (.text.Sciclient_boardCfgParseHeader)
                  43c093f4    000000c0     rm_pm_hal_sbl.am62x.r5f.ti-arm-clang.release.lib : clk_pll_16fft.obj (.text.clk_pll_16fft_wait_for_lock)
                  43c094b4    000000c0                                                      : clk_mux.obj (.text.clk_set_parent)
                  43c09574    000000c0                                                      : clock.obj (.text.get_clock_handler)
                  43c09634    000000c0                                                      : psc.obj (.text.psc_post_init)
                  43c096f4    000000c0                                                      : clock.obj (.text.set_clock_handler)
                  43c097b4    000000bc     sciclient_direct_sbl.am62x.r5f.ti-arm-clang.release.lib : sciclient_pm.obj (.text.Sciclient_pmQueryModuleClkFreq)
                  43c09870    000000bc     rm_pm_hal_sbl.am62x.r5f.ti-arm-clang.release.lib : rm_core.obj (.text.rm_core_resasg_validate_resource)
                  43c0992c    00000004                                                      : clk_soc_hfosc0.obj (.text.clk_soc_hfosc0_get_state)
                  43c09930    000000b8     drivers.am62x.r5f.ti-arm-clang.release.lib : uart_v0.obj (.text.UART_divisorLatchWrite)
                  43c099e8    000000b8     rm_pm_hal_sbl.am62x.r5f.ti-arm-clang.release.lib : device_psc.obj (.text.soc_device_init)
                  43c09aa0    000000b6                                                      : map.obj (.text.map_add)
                  43c09b56    000000b6                                                      : div64.obj (.text.pm_div64)
                  43c09c0c    000000b4     libc.a : fclose.c.obj (.text.__TI_closefile)
                  43c09cc0    000000b4     rm_pm_hal_sbl.am62x.r5f.ti-arm-clang.release.lib : clk_div.obj (.text.clk_div_reg_go_set_div)
                  43c09d74    000000b4     libc.a : fseek.c.obj (.text.fseeko)
                  43c09e28    000000b4     rm_pm_hal_sbl.am62x.r5f.ti-arm-clang.release.lib : init.obj (.text.pm_init)
                  43c09edc    00000004                                                      : clk_soc_lfosc0.obj (.text.clk_soc_lfosc0_get_state)
                  43c09ee0    000000b2     drivers.am62x.r5f.ti-arm-clang.release.lib : uart_v0.obj (.text.UART_flushTxFifo)
                  43c09f92    00000002     --HOLE-- [fill = 0]
                  43c09f94    0000000c     rm_pm_hal_sbl.am62x.r5f.ti-arm-clang.release.lib : trace.obj (.text.trace_reconfigure)
                  43c09fa0    000000b0     nortos.am62x.r5f.ti-arm-clang.release.lib : printf.obj (.text._ntoa_long_long)
                  43c0a050    000000b0     rm_pm_hal_sbl.am62x.r5f.ti-arm-clang.release.lib : boardcfg-user.obj (.text.boardcfg_rm_receive_and_validate)
                  43c0a100    000000ac                                                      : psc.obj (.text.lpsc_module_get_internal)
                  43c0a1ac    000000ac                                                      : rm_udmap.obj (.text.rm_udmap_init)
                  43c0a258    000000aa     sciclient_direct_sbl.am62x.r5f.ti-arm-clang.release.lib : sciclient_pm.obj (.text.Sciclient_pmSetModuleClkFreq)
                  43c0a302    0000000a     rm_pm_hal_sbl.am62x.r5f.ti-arm-clang.release.lib : clk_mux.obj (.text.readl)
                  43c0a30c    00000004                                                      : device_clk.obj (.text.device_clk_get_hw_ssc)
                  43c0a310    000000aa     drivers.am62x.r5f.ti-arm-clang.release.lib : uart_v0.obj (.text.UART_procLineStatusErr)
                  43c0a3ba    00000002     --HOLE-- [fill = 0]
                  43c0a3bc    000000a8     rm_pm_hal_sbl.am62x.r5f.ti-arm-clang.release.lib : device_process.obj (.text.get_device_handler)
                  43c0a464    000000a8                                                      : rm_udmap.obj (.text.udmap_check_index_range)
                  43c0a50c    00000004     libc.a : fseek.c.obj (.text.fseek)
                  43c0a510    000000a6     nortos.am62x.r5f.ti-arm-clang.release.lib : printf.obj (.text._out_rev)
                  43c0a5b6    00000002     --HOLE-- [fill = 0]
                  43c0a5b8    000000a4     rm_pm_hal_sbl.am62x.r5f.ti-arm-clang.release.lib : device_pm.obj (.text.device_set_state)
                  43c0a65c    000000a4     libc.a : memory.c.obj (.text.split)
                  43c0a700    000000a2     sciclient_direct_sbl.am62x.r5f.ti-arm-clang.release.lib : sciclient_direct.obj (.text.boardcfgRmFindCertSize)
                  43c0a7a2    0000000a     rm_pm_hal_sbl.am62x.r5f.ti-arm-clang.release.lib : clk_pll_16fft.obj (.text.readl)
                  43c0a7ac    00000004                                                      : clk_pll_16fft.obj (.text.pll_16fft_vco_fitness)
                  43c0a7b0    000000a0     drivers.am62x.r5f.ti-arm-clang.release.lib : bootloader.obj (.text.Bootloader_loadSelfCpu)
                  43c0a850    000000a0     libsysbm.a : hostrename.c.obj (.text.HOSTrename)
                  43c0a8f0    000000a0     rm_pm_hal_sbl.am62x.r5f.ti-arm-clang.release.lib : rm_core.obj (.text.rm_core_init)
                  43c0a990    000000a0                                                      : rm_ra.obj (.text.rm_ra_validate_ring_index)
                  43c0aa30    0000009e                                                      : rm_udmap.obj (.text.udmap_check_flow_index)
                  43c0aace    00000002     --HOLE-- [fill = 0]
                  43c0aad0    0000009c     libc.a : _io_perm.c.obj (.text.__TI_wrt_ok)
                  43c0ab6c    0000009c     rm_pm_hal_sbl.am62x.r5f.ti-arm-clang.release.lib : clk.obj (.text.clk_generic_set_freq_parent)
                  43c0ac08    0000009c                                                      : clk_pll_16fft.obj (.text.clk_pll_16fft_set_freq)
                  43c0aca4    0000009c                                                      : psc.obj (.text.psc_pd_wait)
                  43c0ad40    0000009c                                                      : rm_ir.obj (.text.rm_ir_clear)
                  43c0addc    00000098     libsysbm.a : hostlseek.c.obj (.text.HOSTlseek)
                  43c0ae74    00000098     sciclient_direct_sbl.am62x.r5f.ti-arm-clang.release.lib : sciclient.obj (.text.Sciclient_serviceGetThreadIds)
                  43c0af0c    00000098     rm_pm_hal_sbl.am62x.r5f.ti-arm-clang.release.lib : device_prepare.obj (.text.device_prepare)
                  43c0afa4    00000098                                                      : rm_ir.obj (.text.ir_clear_rom_mapping)
                  43c0b03c    00000004     libsysbm.a : remove.c.obj (.text.remove)
                  43c0b040    00000096     nortos.am62x.r5f.ti-arm-clang.release.lib : SemaphoreP_nortos.obj (.text.SemaphoreP_pend)
                  43c0b0d6    0000000a     rm_pm_hal_sbl.am62x.r5f.ti-arm-clang.release.lib : clk_pllctrl.obj (.text.readl)
                  43c0b0e0    00000094     drivers.am62x.r5f.ti-arm-clang.release.lib : bootloader.obj (.text.Bootloader_getMsgLen)
                  43c0b174    00000094     libsysbm.a : hostopen.c.obj (.text.HOSTopen)
                  43c0b208    00000008     rm_pm_hal_sbl.am62x.r5f.ti-arm-clang.release.lib : psc.obj (.text.lpsc_module_ret_get)
                  43c0b210    00000094     drivers.am62x.r5f.ti-arm-clang.release.lib : uart_v0.obj (.text.UART_init)
                  43c0b2a4    00000094     rm_pm_hal_sbl.am62x.r5f.ti-arm-clang.release.lib : rm_irq.obj (.text.irq_trace_remaining_params)
                  43c0b338    00000090                                                      : psc.obj (.text.lpsc_module_set_local_reset)
                  43c0b3c8    00000008                                                      : psc.obj (.text.lpsc_module_ret_put)
                  43c0b3d0    0000008e     drivers.am62x.r5f.ti-arm-clang.release.lib : uart_v0.obj (.text.UART_readCancelNoCB)
                  43c0b45e    00000002     --HOLE-- [fill = 0]
                  43c0b460    0000008c     sciclient_direct_sbl.am62x.r5f.ti-arm-clang.release.lib : uart_print.obj (.text.UART_convertVal)
                  43c0b4ec    00000004     rm_pm_hal_sbl.am62x.r5f.ti-arm-clang.release.lib : rm_udmap.obj (.text.rm_udmap_flow_size_thresh_cfg)
                  43c0b4f0    0000008c     nortos.am62x.r5f.ti-arm-clang.release.lib : printf.obj (.text._ntoa_long)
                  43c0b57c    0000008c     rm_pm_hal_sbl.am62x.r5f.ti-arm-clang.release.lib : clk_mux.obj (.text.clk_mux_set_parent)
                  43c0b608    0000008c     libsysbm.a : close.c.obj (.text.close)
                  43c0b694    0000008a     rm_pm_hal_sbl.am62x.r5f.ti-arm-clang.release.lib : rm_ra.obj (.text.ra_check_index_range)
                  43c0b71e    00000002     --HOLE-- [fill = 0]
                  43c0b720    00000088     libc.a : fflush.c.obj (.text.__TI_doflush)
                  43c0b7a8    00000088     rm_pm_hal_sbl.am62x.r5f.ti-arm-clang.release.lib : psc.obj (.text.lpsc_module_set_module_reset)
                  43c0b830    00000086     sciclient_direct_sbl.am62x.r5f.ti-arm-clang.release.lib : sciclient_pm.obj (.text.Sciclient_pmGetModuleClkNumParent)
                  43c0b8b6    00000086                                                             : sciclient_pm.obj (.text.Sciclient_pmGetModuleClkParent)
                  43c0b93c    00000084     libsysbm.a : hostread.c.obj (.text.HOSTread)
                  43c0b9c0    00000084                : hostwrite.c.obj (.text.HOSTwrite)
                  43c0ba44    00000084     sciclient_direct_sbl.am62x.r5f.ti-arm-clang.release.lib : sciclient_boardcfg.obj (.text.Sciclient_boardCfgPm)
                  43c0bac8    00000084                                                             : sciclient_boardcfg.obj (.text.Sciclient_boardCfgRm)
                  43c0bb4c    00000084                                                             : sciclient_pm.obj (.text.Sciclient_pmGetModuleClkFreq)
                  43c0bbd0    00000084                                                             : sciclient_pm.obj (.text.Sciclient_pmModuleGetClkStatus)
                  43c0bc54    00000082                                                             : sciclient_pm.obj (.text.Sciclient_pmGetModuleState)
                  43c0bcd6    0000000a     rm_pm_hal_sbl.am62x.r5f.ti-arm-clang.release.lib : dmsc.obj (.text.readl)
                  43c0bce0    00000080     drivers.am62x.r5f.ti-arm-clang.release.lib : pinmux.obj (.text.Pinmux_config)
                  43c0bd60    00000080     sciclient_direct_sbl.am62x.r5f.ti-arm-clang.release.lib : sciclient.obj (.text.Sciclient_ISR)
                  43c0bde0    00000080                                                             : sciclient_secureproxy.obj (.text.Sciclient_sendMessage)
                  43c0be60    00000080     rm_pm_hal_sbl.am62x.r5f.ti-arm-clang.release.lib : clk_div.obj (.text.clk_div_reg_set_div)
                  43c0bee0    00000080                                                      : clk_pll_16fft.obj (.text.clk_pll_16fft_hsdiv_set_freq)
                  43c0bf60    00000080                                                      : clk_pll_16fft.obj (.text.clk_pll_16fft_postdiv_set_freq)
                  43c0bfe0    00000080                                                      : clock.obj (.text.set_clock_parent_handler)
                  43c0c060    0000007e     drivers.am62x.r5f.ti-arm-clang.release.lib : bootloader_soc.obj (.text.Bootloader_socCpuSetClock)
                  43c0c0de    0000007e     sciclient_direct_sbl.am62x.r5f.ti-arm-clang.release.lib : sciclient_pm.obj (.text.Sciclient_pmModuleClkRequest)
                  43c0c15c    0000007e                                                             : sciclient_pm.obj (.text.Sciclient_pmSetModuleClkParent)
                  43c0c1da    00000002     --HOLE-- [fill = 0]
                  43c0c1dc    0000007c     rm_pm_hal_sbl.am62x.r5f.ti-arm-clang.release.lib : clk.obj (.text.clk_notify_sibling_freq)
                  43c0c258    0000007c                                                      : clk_pll_16fft.obj (.text.clk_pll_16fft_postdiv_set_div)
                  43c0c2d4    0000007c                                                      : clock.obj (.text.get_clock_parent_handler)
                  43c0c350    0000007c                                                      : clock.obj (.text.get_num_clock_parents_handler)
                  43c0c3cc    0000007c                                                      : rm_ra.obj (.text.rm_ra_init)
                  43c0c448    0000007a                                                      : rm_udmap.obj (.text.udmap_clear_rom_oes)
                  43c0c4c2    00000002     --HOLE-- [fill = 0]
                  43c0c4c4    00000078                                                      : clk.obj (.text.clk_get)
                  43c0c53c    00000078                                                      : psc.obj (.text.psc_drop_pwr_up_ref)
                  43c0c5b4    00000078                                                      : rm_ra.obj (.text.rm_ra_is_managed_resasg_utype)
                  43c0c62c    00000074     sciclient_direct_sbl.am62x.r5f.ti-arm-clang.release.lib : sciclient.obj (.text.Sciclient_servicePrepareHeader)
                  43c0c6a0    00000074     rm_pm_hal_sbl.am62x.r5f.ti-arm-clang.release.lib : clk_dev.obj (.text.clk_from_device_get_state)
                  43c0c714    00000074                                                      : rm_irq.obj (.text.irq_validate_global_event)
                  43c0c788    00000070     sciclient_direct_sbl.am62x.r5f.ti-arm-clang.release.lib : sciclient.obj (.text.Sciclient_configPrmsInit)
                  43c0c7f8    00000008     rm_pm_hal_sbl.am62x.r5f.ti-arm-clang.release.lib : rm_core.obj (.text.rm_core_param_is_valid)
                  43c0c800    0000006e     drivers.am62x.r5f.ti-arm-clang.release.lib : ddr_soc.obj (.text.DDR_programHSDIV)
                  43c0c86e    00000002     --HOLE-- [fill = 0]
                  43c0c870    0000006e                                                : lpddr4.obj (.text.LPDDR4_Start)
                  43c0c8de    00000002     --HOLE-- [fill = 0]
                  43c0c8e0    0000006e                                                : soc.obj (.text.SOC_moduleClockEnable)
                  43c0c94e    0000006e     rm_pm_hal_sbl.am62x.r5f.ti-arm-clang.release.lib : rm_core.obj (.text.core_resasg_get_range)
                  43c0c9bc    00000004                                                      : device_psc.obj (.text.soc_device_init_complete)
                  43c0c9c0    0000006c     drivers.am62x.r5f.ti-arm-clang.release.lib : bootloader.obj (.text.Bootloader_findSeq)
                  43c0ca2c    00000004     rm_pm_hal_sbl.am62x.r5f.ti-arm-clang.release.lib : trace.obj (.text.trace_debug)
                  43c0ca30    0000006c     nortos.am62x.r5f.ti-arm-clang.release.lib : ClockP_nortos.obj (.text.ClockP_timerTickIsr)
                  43c0ca9c    0000006c     libsysbm.a : hostunlink.c.obj (.text.HOSTunlink)
                  43c0cb08    00000008     libc.a : exit.c.obj (.text:abort)
                  43c0cb10    0000006c     drivers.am62x.r5f.ti-arm-clang.release.lib : uart_v0.obj (.text.UART_writeCancelNoCB)
                  43c0cb7c    0000006c     rm_pm_hal_sbl.am62x.r5f.ti-arm-clang.release.lib : clk_mux.obj (.text.clk_mux_get_parent)
                  43c0cbe8    0000006c                                                      : device_clk.obj (.text.device_clk_init)
                  43c0cc54    0000006c     libc.a : getdevice.c.obj (.text.finddevice)
                  43c0ccc0    0000006c     rm_pm_hal_sbl.am62x.r5f.ti-arm-clang.release.lib : device_clk.obj (.text.get_dev_clk)
                  43c0cd2c    0000006c                                                      : psc.obj (.text.lpsc_module_set_reset_iso)
                  43c0cd98    0000006a                                                      : rm_ia.obj (.text.ia_unmap_clear_rom_mapping)
                  43c0ce02    0000000a                                                      : mmr_lock.obj (.text.readl)
                  43c0ce0c    00000004     libclang_rt.builtins.a : aeabi_memcpy.S.obj (.text)
                  43c0ce10    00000068     nortos.am62x.r5f.ti-arm-clang.release.lib : AddrTranslateP.obj (.text.AddrTranslateP_getLocalAddr)
                  43c0ce78    00000068     rm_pm_hal_sbl.am62x.r5f.ti-arm-clang.release.lib : rm_core.obj (.text.rm_core_validate_devgrp)
                  43c0cee0    00000068                                                      : rm_ir.obj (.text.rm_ir_get_outp)
                  43c0cf48    00000008     libc.a : fputc.c.obj (.tramp.putchar.1)
                  43c0cf50    00000064     drivers.am62x.r5f.ti-arm-clang.release.lib : bootloader_soc.obj (.text.Bootloader_socCpuGetClock)
                  43c0cfb4    00000008     nortos.am62x.r5f.ti-arm-clang.release.lib : HwiP_armv7r_asm.obj (.tramp.HwiP_enable.1)
                  43c0cfbc    00000004     --HOLE-- [fill = 0]
                  43c0cfc0    00000064     drivers.am62x.r5f.ti-arm-clang.release.lib : bootloader_soc.obj (.text.Bootloader_socMemInitCpu)
                  43c0d024    00000064     sciclient_direct_sbl.am62x.r5f.ti-arm-clang.release.lib : sciclient_procboot.obj (.text.Sciclient_procBootSetSequenceCtrl)
                  43c0d088    00000064     rm_pm_hal_sbl.am62x.r5f.ti-arm-clang.release.lib : clk_div.obj (.text.clk_div_reg_get_div)
                  43c0d0ec    00000064                                                      : clk_pll_16fft.obj (.text.clk_pll_16fft_get_state)
                  43c0d150    00000064                                                      : psc.obj (.text.lpsc_module_clk_put)
                  43c0d1b4    00000064                                                      : resource.obj (.text.resource_get)
                  43c0d218    00000064                                                      : rm_core.obj (.text.rm_core_resasg_get_utype_index)
                  43c0d27c    00000062     sciclient_direct_sbl.am62x.r5f.ti-arm-clang.release.lib : sciclient.obj (.text.Sciclient_setDebugConfig)
                  43c0d2de    00000002     --HOLE-- [fill = 0]
                  43c0d2e0    00000060     libsysbm.a : hostclose.c.obj (.text.HOSTclose)
                  43c0d340    00000060     sciclient_direct_sbl.am62x.r5f.ti-arm-clang.release.lib : sciclient_direct_wrapper.obj (.text.Sciclient_direct_init)
                  43c0d3a0    00000060                                                             : sciclient_pm.obj (.text.Sciclient_pmSetModuleState)
                  43c0d400    00000060     rm_pm_hal_sbl.am62x.r5f.ti-arm-clang.release.lib : clk.obj (.text.clk_notify_freq)
                  43c0d460    00000060                                                      : device_psc.obj (.text.soc_device_get_state)
                  43c0d4c0    0000005e     sciclient_direct_sbl.am62x.r5f.ti-arm-clang.release.lib : sciclient_procboot.obj (.text.Sciclient_procBootAuthAndStart)
                  43c0d51e    0000005e     rm_pm_hal_sbl.am62x.r5f.ti-arm-clang.release.lib : rm_ra.obj (.text.ra_check_monitor_index_range)
                  43c0d57c    00000004     --HOLE-- [fill = 0]
                  43c0d580    0000005c     nortos.am62x.r5f.ti-arm-clang.release.lib : DebugP_log.obj (.text._DebugP_assert)
                  43c0d5dc    0000005c     rm_pm_hal_sbl.am62x.r5f.ti-arm-clang.release.lib : clk_div.obj (.text.clk_div_reg_go_get_div)
                  43c0d638    0000005c                                                      : clk_pllctrl.obj (.text.clk_pllctrl_mux_get_parent)
                  43c0d694    0000005c                                                      : device_clk.obj (.text.device_clk_get_hw_ready)
                  43c0d6f0    0000005c                                                      : clock.obj (.text.get_freq_handler)
                  43c0d74c    0000005c                                                      : device_process.obj (.text.set_device_resets_handler)
                  43c0d7a8    0000005c                                                      : device_psc.obj (.text.soc_device_disable)
                  43c0d804    00000058     libc.a : fopen.c.obj (.text.__TI_cleanup)
                  43c0d85c    00000058     libsysbm.a : trgmsg.c.obj (.text.__TI_readmsg)
                  43c0d8b4    00000058                : trgmsg.c.obj (.text.__TI_writemsg)
                  43c0d90c    00000058     rm_pm_hal_sbl.am62x.r5f.ti-arm-clang.release.lib : itoa.obj (.text.lib_itoa)
                  43c0d964    00000058                                                      : mmr_lock.obj (.text.mmr_unlock_all)
                  43c0d9bc    00000058                                                      : pll.obj (.text.pll_init)
                  43c0da14    00000058                                                      : rm_udmap.obj (.text.udmap_get_inst)
                  43c0da6c    00000004     --HOLE-- [fill = 0]
                  43c0da70    00000056     drivers.am62x.r5f.ti-arm-clang.release.lib : uart_dma.obj (.text.UART_dmaDisableChannel)
                  43c0dac6    00000054     sciclient_direct_sbl.am62x.r5f.ti-arm-clang.release.lib : sciclient_pm.obj (.text.Sciclient_pmSetModuleRst)
                  43c0db1a    00000006     --HOLE-- [fill = 0]
                  43c0db20    00000054     drivers.am62x.r5f.ti-arm-clang.release.lib : uart_dma.obj (.text.UART_dmaClose)
                  43c0db74    00000054     rm_pm_hal_sbl.am62x.r5f.ti-arm-clang.release.lib : clk_div.obj (.text.clk_div_init)
                  43c0dbc8    00000054                                                      : device_clk.obj (.text.device_clk_set_freq_change)
                  43c0dc1c    00000054                                                      : device_clk.obj (.text.device_clk_set_ssc)
                  43c0dc70    00000054     libc.a : exit.c.obj (.text.exit)
                  43c0dcc4    00000054     rm_pm_hal_sbl.am62x.r5f.ti-arm-clang.release.lib : psc.obj (.text.lpsc_module_get_local_reset)
                  43c0dd18    00000054                                                      : rm_irq.obj (.text.rm_irq_oes_src_register)
                  43c0dd6c    00000054                                                      : device_psc.obj (.text.soc_device_enable)
                  43c0ddc0    00000052                                                      : rm_ra.obj (.text.ra_clear_rom_oes)
                  43c0de12    00000002     --HOLE-- [fill = 0]
                  43c0de14    00000008     nortos.am62x.r5f.ti-arm-clang.release.lib : HwiP_armv7r_asm.obj (.tramp.HwiP_restore.1)
                  43c0de1c    00000004     --HOLE-- [fill = 0]
                  43c0de20    00000050                                               : ClockP_nortos.obj (.text.ClockP_addToList)
                  43c0de70    00000050                                               : ClockP_nortos.obj (.text.ClockP_construct)
                  43c0dec0    00000050     sciclient_direct_sbl.am62x.r5f.ti-arm-clang.release.lib : sciclient.obj (.text.Sciclient_serviceGetPayloadSize)
                  43c0df10    00000050     rm_pm_hal_sbl.am62x.r5f.ti-arm-clang.release.lib : clk_pll_16fft.obj (.text.clk_pll_16fft_postdiv_get_div)
                  43c0df60    00000050                                                      : device_psc.obj (.text.soc_device_get_context_loss_count)
                  43c0dfb0    00000050                                                      : device_psc.obj (.text.soc_device_set_resets)
                  43c0e000    00000050                                                      : rm_udmap.obj (.text.udmap_validate_burst_size)
                  43c0e050    00000050     libc.a : autoinit.c.obj (.text:__TI_auto_init_nobinit_nopinit)
                  43c0e0a0    0000004e     drivers.am62x.r5f.ti-arm-clang.release.lib : bootloader_soc.obj (.text.Bootloader_socTranslateSectionAddr)
                  43c0e0ee    00000002     --HOLE-- [fill = 0]
                  43c0e0f0    0000004e                                                : lpddr4.obj (.text.LPDDR4_ReadReg)
                  43c0e13e    0000004e     sciclient_direct_sbl.am62x.r5f.ti-arm-clang.release.lib : sciclient.obj (.text.Sciclient_abiCheck)
                  43c0e18c    0000004e     rm_pm_hal_sbl.am62x.r5f.ti-arm-clang.release.lib : device_psc.obj (.text.soc_device_verify_mapping)
                  43c0e1da    00000006     --HOLE-- [fill = 0]
                  43c0e1e0    0000004c     nortos.am62x.r5f.ti-arm-clang.release.lib : ClockP_nortos.obj (.text.ClockP_getTimeUsec)
                  43c0e22c    00000004     --HOLE-- [fill = 0]
                  43c0e230    0000004c     ti_drivers_open_close.obj (.text.Drivers_uartOpen)
                  43c0e27c    0000004c     sciclient_direct_sbl.am62x.r5f.ti-arm-clang.release.lib : sciclient.obj (.text.Sciclient_deinit)
                  43c0e2c8    0000004c                                                             : sciclient_boardcfg.obj (.text.Sciclient_getDefaultBoardCfgInfo)
                  43c0e314    0000004c     rm_pm_hal_sbl.am62x.r5f.ti-arm-clang.release.lib : clk_pll_16fft.obj (.text.clk_pll_16fft_cal_option4)
                  43c0e360    0000004c                                                      : psc.obj (.text.lpsc_module_get_reset_iso)
                  43c0e3ac    0000004c                                                      : rm_ra.obj (.text.ra_get_inst)
                  43c0e3f8    0000004c                                                      : device_psc.obj (.text.soc_device_get_resets)
                  43c0e444    0000004c                                                      : device_psc.obj (.text.soc_device_ret_disable)
                  43c0e490    0000004c                                                      : device_psc.obj (.text.soc_device_ret_enable)
                  43c0e4dc    00000004     --HOLE-- [fill = 0]
                  43c0e4e0    0000004a     drivers.am62x.r5f.ti-arm-clang.release.lib : soc.obj (.text.SOC_controlModuleUnlockMMR)
                  43c0e52a    00000006     --HOLE-- [fill = 0]
                  43c0e530    00000048                                                : lpddr4.obj (.text.LPDDR4_WritePhyIndepConfig)
                  43c0e578    00000048     sciclient_direct_sbl.am62x.r5f.ti-arm-clang.release.lib : sciclient.obj (.text.Sciclient_getCurrentContext)
                  43c0e5c0    00000048     rm_pm_hal_sbl.am62x.r5f.ti-arm-clang.release.lib : clk_pll_16fft.obj (.text.clk_pll_16fft_bypass)
                  43c0e608    00000048                                                      : clk.obj (.text.clk_put)
                  43c0e650    00000048                                                      : device_clk.obj (.text.get_dev_clk_data)
                  43c0e698    00000048     libsysbm.a : unlink.c.obj (.text.unlink)
                  43c0e6e0    00000046     drivers.am62x.r5f.ti-arm-clang.release.lib : lpddr4.obj (.text.LPDDR4_WritePhyConfig)
                  43c0e726    0000000a     --HOLE-- [fill = 0]
                  43c0e730    00000046                                                : bootloader_xmodem.obj (.text._inbyte)
                  43c0e776    00000046     rm_pm_hal_sbl.am62x.r5f.ti-arm-clang.release.lib : rm_irq.obj (.text.irq_cfg_is_ia_cfg)
                  43c0e7bc    00000046                                                      : rm_irq.obj (.text.irq_cfg_is_ir_cfg)
                  43c0e802    00000046                                                      : rm_irq.obj (.text.irq_cfg_is_oes_only)
                  43c0e848    00000044     sciclient_direct_sbl.am62x.r5f.ti-arm-clang.release.lib : sciclient_direct_wrapper.obj (.text.Sciclient_waitForBootNotification)
                  43c0e88c    00000044     rm_pm_hal_sbl.am62x.r5f.ti-arm-clang.release.lib : dmsc.obj (.text.am62x_sys_reset_handler)
                  43c0e8d0    00000044                                                      : clk.obj (.text.clk_get_state)
                  43c0e914    00000044                                                      : rm_ia.obj (.text.rm_ia_is_managed_resasg_utype)
                  43c0e958    00000042                                                      : device_clk.obj (.text.device_clk_disable)
                  43c0e99a    00000042                                                      : device_clk.obj (.text.device_clk_enable)
                  43c0e9dc    00000004     --HOLE-- [fill = 0]
                  43c0e9e0    00000040     nortos.am62x.r5f.ti-arm-clang.release.lib : ClockP_nortos.obj (.text.ClockP_stop)
                  43c0ea20    00000040     drivers.am62x.r5f.ti-arm-clang.release.lib : lpddr4.obj (.text.LPDDR4_WriteCtlConfig)
                  43c0ea60    00000040     nortos.am62x.r5f.ti-arm-clang.release.lib : SemaphoreP_nortos.obj (.text.SemaphoreP_constructBinary)
                  43c0eaa0    00000040     rm_pm_hal_sbl.am62x.r5f.ti-arm-clang.release.lib : clk_mux.obj (.text.clk_get_parent)
                  43c0eae0    00000040     libc.a : memory.c.obj (.text.free_list_insert)
                  43c0eb20    00000040     rm_pm_hal_sbl.am62x.r5f.ti-arm-clang.release.lib : psc.obj (.text.pd_initiate)
                  43c0eb60    00000040                                                      : rm_irq.obj (.text.rm_irq_is_managed_resasg_utype)
                  43c0eba0    00000040                                                      : device_psc.obj (.text.soc_device_set_reset_iso)
                  43c0ebe0    00000040                                                      : trace.obj (.text.trace_debug_internal)
                  43c0ec20    0000003e     drivers.am62x.r5f.ti-arm-clang.release.lib : bootloader.obj (.text.Bootloader_open)
                  43c0ec5e    00000002     --HOLE-- [fill = 0]
                  43c0ec60    0000003e     nortos.am62x.r5f.ti-arm-clang.release.lib : SemaphoreP_nortos.obj (.text.SemaphoreP_constructMutex)
                  43c0ec9e    0000003e     rm_pm_hal_sbl.am62x.r5f.ti-arm-clang.release.lib : device_clk.obj (.text.device_clk_get_num_parents)
                  43c0ecdc    0000003e                                                      : device_psc.obj (.text.soc_device_ret_enable_internal)
                  43c0ed1a    0000003e                                                      : rm_udmap.obj (.text.udmap_validate_chan_type)
                  43c0ed58    0000003c                                                      : device_pm.obj (.text.device_disable)
                  43c0ed94    0000003c                                                      : rm_ir.obj (.text.ir_get_inst)
                  43c0edd0    0000003c                                                      : psc.obj (.text.lpsc_module_clk_get)
                  43c0ee0c    0000003c                                                      : mmr_lock.obj (.text.mmr_unlock)
                  43c0ee48    0000003c                                                      : psc.obj (.text.psc_lookup_lpsc)
                  43c0ee84    0000003c                                                      : device_psc.obj (.text.soc_device_get_reset_iso)
                  43c0eec0    0000003c                                                      : device_psc.obj (.text.soc_device_ret_disable_internal)
                  43c0eefc    00000004     --HOLE-- [fill = 0]
                  43c0ef00    0000003a     nortos.am62x.r5f.ti-arm-clang.release.lib : ClockP_nortos.obj (.text.ClockP_destruct)
                  43c0ef3a    00000006     --HOLE-- [fill = 0]
                  43c0ef40    0000003a     ti_dpl_config.obj (.text.Dpl_init)
                  43c0ef7a    00000006     --HOLE-- [fill = 0]
                  43c0ef80    0000003a     drivers.am62x.r5f.ti-arm-clang.release.lib : uart_dma.obj (.text.UART_dmaOpen)
                  43c0efba    0000003a     rm_pm_hal_sbl.am62x.r5f.ti-arm-clang.release.lib : boardcfg-user.obj (.text.boardcfg_pm_receive_and_validate)
                  43c0eff4    0000000c     --HOLE-- [fill = 0]
                  43c0f000    00000038     drivers.am62x.r5f.ti-arm-clang.release.lib : bootloader.obj (.text.Bootloader_getX509CertLen)
                  43c0f038    00000008     --HOLE-- [fill = 0]
                  43c0f040    00000038     nortos.am62x.r5f.ti-arm-clang.release.lib : DebugP_nortos.obj (.text._DebugP_logZone)
                  43c0f078    00000038     rm_pm_hal_sbl.am62x.r5f.ti-arm-clang.release.lib : clk.obj (.text.clk_drop_pwr_up_en)
                  43c0f0b0    00000038                                                      : clk_pll_16fft.obj (.text.clk_pll_16fft_cal_option3)
                  43c0f0e8    00000038                                                      : clk.obj (.text.clk_value_set_freq)
                  43c0f120    00000038                                                      : device_clk.obj (.text.device_clk_get_freq)
                  43c0f158    00000038                                                      : rm_ir.obj (.text.rm_ir_init)
                  43c0f190    00000036     ti_power_clock_config.obj (.text.Module_clockSetFrequency)
                  43c0f1c6    0000000a     --HOLE-- [fill = 0]
                  43c0f1d0    00000036     drivers.am62x.r5f.ti-arm-clang.release.lib : bootloader_xmodem.obj (.text._outbyte)
                  43c0f206    0000000a     --HOLE-- [fill = 0]
                  43c0f210    00000034     nortos.am62x.r5f.ti-arm-clang.release.lib : ClockP_nortos.obj (.text.ClockP_start)
                  43c0f244    0000000c     --HOLE-- [fill = 0]
                  43c0f250    00000034     drivers.am62x.r5f.ti-arm-clang.release.lib : lpddr4_16bit.obj (.text.LPDDR4_EnablePIInitiator)
                  43c0f284    0000000c     --HOLE-- [fill = 0]
                  43c0f290    00000034                                                : lpddr4.obj (.text.LPDDR4_PollCtlIrq)
                  43c0f2c4    00000034     sciclient_direct_sbl.am62x.r5f.ti-arm-clang.release.lib : uart_print.obj (.text.UART_dataWrite)
                  43c0f2f8    00000034     rm_pm_hal_sbl.am62x.r5f.ti-arm-clang.release.lib : device.obj (.text.devices_init_rw)
                  43c0f32c    00000034     libc.a : memory.c.obj (.text.free_list_remove)
                  43c0f360    00000034     libsysbm.a : lseek.c.obj (.text.lseek)
                  43c0f394    00000034     rm_pm_hal_sbl.am62x.r5f.ti-arm-clang.release.lib : psc.obj (.text.psc_lookup)
                  43c0f3c8    00000034                                                      : psc.obj (.text.psc_lookup_pd)
                  43c0f3fc    00000034                                                      : rm.obj (.text.rm_init)
                  43c0f430    00000034     libsysbm.a : write.c.obj (.text.write)
                  43c0f464    0000000c     --HOLE-- [fill = 0]
                  43c0f470    00000032     drivers.am62x.r5f.ti-arm-clang.release.lib : bootloader.obj (.text.Bootloader_BootImageInfo_init)
                  43c0f4a2    0000000e     --HOLE-- [fill = 0]
                  43c0f4b0    00000032                                                : bootloader_xmodem.obj (.text.Bootloader_xmodemReceive)
                  43c0f4e2    0000000e     --HOLE-- [fill = 0]
                  43c0f4f0    00000032                                                : bootloader_xmodem.obj (.text.Bootloader_xmodemTransmit)
                  43c0f522    0000000e     --HOLE-- [fill = 0]
                  43c0f530    00000032     nortos.am62x.r5f.ti-arm-clang.release.lib : ClockP_nortos.obj (.text.ClockP_usleep)
                  43c0f562    0000000e     --HOLE-- [fill = 0]
                  43c0f570    00000032                                               : SemaphoreP_nortos.obj (.text.SemaphoreP_post)
                  43c0f5a2    00000032     rm_pm_hal_sbl.am62x.r5f.ti-arm-clang.release.lib : device_pm.obj (.text.device_set_retention)
                  43c0f5d4    0000000c     --HOLE-- [fill = 0]
                  43c0f5e0    00000030     ti_drivers_config.obj (.text.System_init)
                  43c0f610    00000030     rm_pm_hal_sbl.am62x.r5f.ti-arm-clang.release.lib : clk_fixed.obj (.text.clk_fixed_get_freq)
                  43c0f640    00000030                                                      : clk.obj (.text.clk_get_freq)
                  43c0f670    00000030                                                      : clk.obj (.text.clk_get_parent_freq)
                  43c0f6a0    00000030                                                      : clk.obj (.text.clk_set_state)
                  43c0f6d0    00000030                                                      : trace-uart.obj (.text.trace_debug_uart)
                  43c0f700    0000002e     main.obj (.text.App_loadSelfcoreImage)
                  43c0f72e    00000002     --HOLE-- [fill = 0]
                  43c0f730    0000002e     drivers.am62x.r5f.ti-arm-clang.release.lib : ddr.obj (.text.DDR_setFreq)
                  43c0f75e    00000002     --HOLE-- [fill = 0]
                  43c0f760    0000002e     ti_power_clock_config.obj (.text.Module_clockDisable)
                  43c0f78e    00000002     --HOLE-- [fill = 0]
                  43c0f790    0000002e     ti_power_clock_config.obj (.text.Module_clockEnable)
                  43c0f7be    00000002     --HOLE-- [fill = 0]
                  43c0f7c0    0000002e     drivers.am62x.r5f.ti-arm-clang.release.lib : uart_v0.obj (.text.UART_getHandle)
                  43c0f7ee    0000002e     rm_pm_hal_sbl.am62x.r5f.ti-arm-clang.release.lib : clk_pll_16fft.obj (.text.clk_pll_16fft_set_state)
                  43c0f81c    0000002c     sciclient_direct_sbl.am62x.r5f.ti-arm-clang.release.lib : sciclient_secureproxy.obj (.text.Sciclient_flush)
                  43c0f848    0000002c     rm_pm_hal_sbl.am62x.r5f.ti-arm-clang.release.lib : clk_div.obj (.text.clk_get_div)
                  43c0f874    0000002c                                                      : clk.obj (.text.clk_lookup)
                  43c0f8a0    0000002c                                                      : clk_div.obj (.text.clk_lookup)
                  43c0f8cc    0000002c                                                      : clk_mux.obj (.text.clk_lookup)
                  43c0f8f8    0000002c                                                      : clk_pll_16fft.obj (.text.clk_lookup)
                  43c0f924    0000002c                                                      : device_clk.obj (.text.clk_lookup)
                  43c0f950    0000002c                                                      : psc.obj (.text.clk_lookup)
                  43c0f97c    00000004     --HOLE-- [fill = 0]
                  43c0f980    0000002c     drivers.am62x.r5f.ti-arm-clang.release.lib : crc16.obj (.text.crc16_ccitt)
                  43c0f9ac    0000002c     rm_pm_hal_sbl.am62x.r5f.ti-arm-clang.release.lib : psc.obj (.text.device_lookup)
                  43c0f9d8    0000002c                                                      : rm_irq.obj (.text.irq_is_evt_src)
                  43c0fa04    0000002c                                                      : psc.obj (.text.lpsc_module_get_state)
                  43c0fa30    0000002a     drivers.am62x.r5f.ti-arm-clang.release.lib : soc.obj (.text.SOC_controlModuleLockMMR)
                  43c0fa5a    0000002a     rm_pm_hal_sbl.am62x.r5f.ti-arm-clang.release.lib : rm_ir.obj (.text.ir_clear_outp)
                  43c0fa84    0000002a                                                      : device_psc.obj (.text.soc_device_get_state_internal)
                  43c0faae    00000002     --HOLE-- [fill = 0]
                  43c0fab0    00000028     nortos.am62x.r5f.ti-arm-clang.release.lib : ClockP_nortos.obj (.text.ClockP_sleepTicks)
                  43c0fad8    00000008     --HOLE-- [fill = 0]
                  43c0fae0    00000028     drivers.am62x.r5f.ti-arm-clang.release.lib : bootloader_mem.obj (.text.Mem_imgRead)
                  43c0fb08    00000008     --HOLE-- [fill = 0]
                  43c0fb10    00000028                                                : uart_v0.obj (.text.UART_statusIsDataReady)
                  43c0fb38    00000028     rm_pm_hal_sbl.am62x.r5f.ti-arm-clang.release.lib : clk.obj (.text.clk_value_get_freq)
                  43c0fb60    00000028                                                      : fw_caps.obj (.text.query_fw_caps_handler)
                  43c0fb88    00000028                                                      : rm_ia.obj (.text.rm_ia_validate_vint)
                  43c0fbb0    00000028                                                      : rm_ir.obj (.text.rm_ir_is_managed_resasg_utype)
                  43c0fbd8    00000028                                                      : rm_ir.obj (.text.rm_ir_validate_output)
                  43c0fc00    00000028                                                      : device_psc.obj (.text.soc_device_disable_internal)
                  43c0fc28    00000028                                                      : device_psc.obj (.text.soc_device_enable_internal)
                  43c0fc50    00000028     libclang_rt.builtins.a : ashldi3.S.obj (.text)
                  43c0fc78    00000028                            : lshrdi3.S.obj (.text)
                  43c0fca0    00000026     rm_pm_hal_sbl.am62x.r5f.ti-arm-clang.release.lib : rm_udmap.obj (.text.udmap_validate_ch_fetch_size)
                  43c0fcc6    00000026                                                      : rm_udmap.obj (.text.udmap_validate_orderid)
                  43c0fcec    00000026                                                      : rm_udmap.obj (.text.udmap_validate_priority)
                  43c0fd12    00000026                                                      : rm_udmap.obj (.text.udmap_validate_qos)
                  43c0fd38    00000024     sciclient_direct_sbl.am62x.r5f.ti-arm-clang.release.lib : sciclient_secureproxy.obj (.text.Sciclient_waitThread)
                  43c0fd5c    00000024     rm_pm_hal_sbl.am62x.r5f.ti-arm-clang.release.lib : boardcfg-user.obj (.text.boardcfg_get_rm_devgrp)
                  43c0fd80    00000024                                                      : clk_soc_hfosc0.obj (.text.clk_soc_hfosc0_get_freq)
                  43c0fda4    00000024                                                      : map.obj (.text.closest)
                  43c0fdc8    00000024                                                      : device_prepare.obj (.text.device_prepare_exclusive)
                  43c0fdec    00000024                                                      : device_pm.obj (.text.device_suspend)
                  43c0fe10    00000024                                                      : dmsc.obj (.text.dmsc_init)
                  43c0fe34    00000024                                                      : psc.obj (.text.lpsc_module_idx)
                  43c0fe58    00000024                                                      : osal_glue.obj (.text.osal_delay)
                  43c0fe7c    00000024                                                      : rm_ia.obj (.text.rm_ia_vint_get_info)
                  43c0fea0    00000024                                                      : rm_irq.obj (.text.rm_irq_init)
                  43c0fec4    00000024                                                      : rm_udmap.obj (.text.udmap_validate_atype)
                  43c0fee8    00000024                                                      : rm_udmap.obj (.text.udmap_validate_ch_pause_on_err)
                  43c0ff0c    00000024                                                      : rm_udmap.obj (.text.udmap_validate_sched_priority)
                  43c0ff30    00000024     nortos.am62x.r5f.ti-arm-clang.release.lib : printf.obj (.text.vprintf_)
                  43c0ff54    00000024     libclang_rt.builtins.a : aeabi_uldivmod.S.obj (.text)
                  43c0ff78    00000008     --HOLE-- [fill = 0]
                  43c0ff80    00000022     drivers.am62x.r5f.ti-arm-clang.release.lib : ddr_soc.obj (.text.DDR_ResetDDR_PLL)
                  43c0ffa2    0000000e     --HOLE-- [fill = 0]
                  43c0ffb0    00000022     ti_pinmux_config.obj (.text.Pinmux_init)
                  43c0ffd2    00000022     rm_pm_hal_sbl.am62x.r5f.ti-arm-clang.release.lib : clk.obj (.text.clk_ssc_allow)
                  43c0fff4    00000022                                                      : device_clk.obj (.text.device_clk_set_input_term)
                  43c10016    00000022                                                      : rm_ir.obj (.text.ir_get_inp)
                  43c10038    00000022                                                      : clk_div.obj (.text.pm_writel_verified)
                  43c1005a    00000022                                                      : clk_pll_16fft.obj (.text.pm_writel_verified)
                  43c1007c    00000004     --HOLE-- [fill = 0]
                  43c10080    00000020     drivers.am62x.r5f.ti-arm-clang.release.lib : bootloader_soc.obj (.text.Bootloader_socGetCoreName)
                  43c100a0    00000020                                                : bootloader_soc.obj (.text.Bootloader_socRprcToCslCoreId)
                  43c100c0    00000020     nortos.am62x.r5f.ti-arm-clang.release.lib : DebugP_log.obj (.text.DebugP_logZoneEnable)
                  43c100e0    00000020     sciclient_direct_sbl.am62x.r5f.ti-arm-clang.release.lib : sciclient_direct.obj (.text.Sciclient_query_fw_caps_handler)
                  43c10100    00000020     ti_drivers_config.obj (.text.System_deinit)
                  43c10120    00000020     nortos.am62x.r5f.ti-arm-clang.release.lib : TimerP.obj (.text.TimerP_Params_init)
                  43c10140    00000020     rm_pm_hal_sbl.am62x.r5f.ti-arm-clang.release.lib : clk_div.obj (.text.clk_div_fixed_get_div)
                  43c10160    00000020                                                      : clk.obj (.text.clk_ssc_block)
                  43c10180    00000020                                                      : rm_ia.obj (.text.ia_get_inst)
                  43c101a0    00000020                                                      : clk_pll_16fft.obj (.text.pll_16fft_pllm_valid)
                  43c101c0    00000020                                                      : device_psc.obj (.text.soc_device_get_context_loss_count_internal)
                  43c101e0    0000001e                                                      : resource.obj (.text.device_resource_mem)
                  43c101fe    0000001e                                                      : psc.obj (.text.psc_pd_clk_put)
                  43c1021c    0000001e                                                      : core.obj (.text.sys_reset_handler)
                  43c1023a    0000001e                                                      : map.obj (.text.u32map_get)
                  43c10258    00000008     --HOLE-- [fill = 0]
                  43c10260    0000001c     drivers.am62x.r5f.ti-arm-clang.release.lib : bootloader.obj (.text.Bootloader_JumpSelfCpu)
                  43c1027c    00000004     --HOLE-- [fill = 0]
                  43c10280    0000001c                                                : bootloader_soc.obj (.text.Bootloader_socCpuGetClkDefault)
                  43c1029c    00000004     --HOLE-- [fill = 0]
                  43c102a0    0000001c                                                : bootloader_soc.obj (.text.Bootloader_socIsAuthRequired)
                  43c102bc    00000004     --HOLE-- [fill = 0]
                  43c102c0    0000001c                                                : bootloader_mem.obj (.text.Mem_imgOpen)
                  43c102dc    0000001c     sciclient_direct_sbl.am62x.r5f.ti-arm-clang.release.lib : sciclient_secureproxy.obj (.text.Sciclient_readThread32)
                  43c102f8    00000008     --HOLE-- [fill = 0]
                  43c10300    0000001c     nortos.am62x.r5f.ti-arm-clang.release.lib : boot_armv7r.obj (.text._system_pre_init)
                  43c1031c    0000001c     rm_pm_hal_sbl.am62x.r5f.ti-arm-clang.release.lib : rm_irq.obj (.text.irq_oes_src_lookup)
                  43c10338    0000001c                                                      : psc.obj (.text.psc_read)
                  43c10354    0000001c                                                      : sleep.obj (.text.sleep_modes_register)
                  43c10370    0000001c     libsysbm.a : hostrename.c.obj (.text.strlen)
                  43c1038c    0000001c                : memcpy32.S.obj (.text:TI_memcpy_small)
                  43c103a8    0000001c     libclang_rt.builtins.a : aeabi_memset.S.obj (.text)
                  43c103c4    0000000c     --HOLE-- [fill = 0]
                  43c103d0    0000001a     drivers.am62x.r5f.ti-arm-clang.release.lib : uart_v0.obj (.text.UART_deinit)
                  43c103ea    00000006     --HOLE-- [fill = 0]
                  43c103f0    0000001a                                                : uart_dma.obj (.text.UART_readInterruptDma)
                  43c1040a    00000006     --HOLE-- [fill = 0]
                  43c10410    0000001a                                                : uart_dma.obj (.text.UART_writeInterruptDma)
                  43c1042a    0000001a     rm_pm_hal_sbl.am62x.r5f.ti-arm-clang.release.lib : notifier.obj (.text.notifier_call)
                  43c10444    0000001a                                                      : psc.obj (.text.psc_write)
                  43c1045e    00000002     --HOLE-- [fill = 0]
                  43c10460    00000018     drivers.am62x.r5f.ti-arm-clang.release.lib : bootloader_soc.obj (.text.Bootloader_socAuthImage)
                  43c10478    00000008     --HOLE-- [fill = 0]
                  43c10480    00000018     ti_drivers_open_close.obj (.text.Drivers_close)
                  43c10498    00000008     --HOLE-- [fill = 0]
                  43c104a0    00000018     drivers.am62x.r5f.ti-arm-clang.release.lib : lpddr4.obj (.text.LPDDR4_Init)
                  43c104b8    00000018     rm_pm_hal_sbl.am62x.r5f.ti-arm-clang.release.lib : boardcfg-user.obj (.text.boardcfg_get_rm_resasg_size)
                  43c104d0    00000018                                                      : clk_pll_16fft.obj (.text.clk_pll_16fft_postdiv_valid_div)
                  43c104e8    00000018                                                      : clk_soc_lfosc0.obj (.text.clk_soc_lfosc0_get_freq)
                  43c10500    00000018                                                      : device_clk.obj (.text.dev_get_clk)
                  43c10518    00000018                                                      : clk_pll_16fft.obj (.text.pll_16fft_clkod_valid)
                  43c10530    00000018     libsysbm.a : memset32.S.obj (.text:TI_memset_small)
                  43c10548    00000016     rm_pm_hal_sbl.am62x.r5f.ti-arm-clang.release.lib : clk_div.obj (.text.clk_div_get_freq)
                  43c1055e    00000016                                                      : clk_pll_16fft.obj (.text.clk_pll_16fft_check_lock)
                  43c10574    00000016                                                      : device_clk.obj (.text.device_clk_set_freq)
                  43c1058a    00000002     --HOLE-- [fill = 0]
                  43c1058c    00000014     sciclient_direct_sbl.am62x.r5f.ti-arm-clang.release.lib : sciclient_secureproxy.obj (.text.Sciclient_readThreadCount)
                  43c105a0    00000014                                                             : sciclient_secureproxy.obj (.text.Sciclient_verifyThread)
                  43c105b4    00000014     rm_pm_hal_sbl.am62x.r5f.ti-arm-clang.release.lib : boardcfg-user.obj (.text.boardcfg_get_rm_resasg)
                  43c105c8    00000014                                                      : clk_pll_16fft.obj (.text.clk_pll_16fft_is_bypass)
                  43c105dc    00000014                                                      : device_clk.obj (.text.device_clk_get_freq_change)
                  43c105f0    00000014                                                      : device_clk.obj (.text.device_clk_get_input_term)
                  43c10604    00000014                                                      : device_clk.obj (.text.device_clk_get_ssc)
                  43c10618    00000014                                                      : device_clk.obj (.text.device_clk_get_sw_gated)
                  43c1062c    00000014                                                      : rm_core.obj (.text.rm_core_unmap_region)
                  43c10640    00000014     libsysbm.a : hostrename.c.obj (.text.strcpy)
                  43c10654    00000014     rm_pm_hal_sbl.am62x.r5f.ti-arm-clang.release.lib : sys-reset.obj (.text.system_reset)
                  43c10668    00000008     --HOLE-- [fill = 0]
                  43c10670    00000012     nortos.am62x.r5f.ti-arm-clang.release.lib : TimerP.obj (.text.TimerP_clearOverflowInt)
                  43c10682    0000000e     --HOLE-- [fill = 0]
                  43c10690    00000010     drivers.am62x.r5f.ti-arm-clang.release.lib : bootloader.obj (.text.Bootloader_close)
                  43c106a0    00000010     nortos.am62x.r5f.ti-arm-clang.release.lib : ClockP_nortos.obj (.text.ClockP_ticksToUsec)
                  43c106b0    00000010     drivers.am62x.r5f.ti-arm-clang.release.lib : lpddr4.obj (.text.LPDDR4_Probe)
                  43c106c0    00000010     sciclient_direct_sbl.am62x.r5f.ti-arm-clang.release.lib : sciclient_secureproxy.obj (.text.Sciclient_threadStatusReg)
                  43c106d0    00000010                                                             : sciclient.obj (.text.Sciclient_utilByteCopy)
                  43c106e0    00000010     rm_pm_hal_sbl.am62x.r5f.ti-arm-clang.release.lib : device_clk.obj (.text.device_clk_query_freq)
                  43c106f0    00000010                                                      : device_pm.obj (.text.device_notify)
                  43c10700    00000010                                                      : device.obj (.text.pm_devgroup_is_enabled)
                  43c10710    00000010                                                      : device.obj (.text.pm_devgroup_set_enabled)
                  43c10720    00000010     libc.a : fputc.c.obj (.text.putchar)
                  43c10730    00000010     rm_pm_hal_sbl.am62x.r5f.ti-arm-clang.release.lib : rm_core.obj (.text.rm_core_map_region)
                  43c10740    0000000e     drivers.am62x.r5f.ti-arm-clang.release.lib : bootloader_soc.obj (.text.Bootloader_socCpuSetEntryPoint)
                  43c1074e    00000002     --HOLE-- [fill = 0]
                  43c10750    0000000e     ti_power_clock_config.obj (.text.PowerClock_init)
                  43c1075e    00000002     --HOLE-- [fill = 0]
                  43c10760    0000000c     drivers.am62x.r5f.ti-arm-clang.release.lib : bootloader.obj (.text.Bootloader_Params_init)
                  43c1076c    00000004     --HOLE-- [fill = 0]
                  43c10770    0000000c                                                : bootloader_soc.obj (.text.Bootloader_socSelfCPUjump)
                  43c1077c    00000004     --HOLE-- [fill = 0]
                  43c10780    0000000c     nortos.am62x.r5f.ti-arm-clang.release.lib : ClockP_nortos.obj (.text.ClockP_getTicks)
                  43c1078c    00000004     --HOLE-- [fill = 0]
                  43c10790    0000000a     drivers.am62x.r5f.ti-arm-clang.release.lib : bootloader_soc.obj (.text.Bootloader_socGetSBLMem)
                  43c1079a    00000006     --HOLE-- [fill = 0]
                  43c107a0    0000000a                                                : csl_sec_proxy.obj (.text.CSL_secProxyGetDataAddr)
                  43c107aa    00000006     --HOLE-- [fill = 0]
                  43c107b0    0000000a     nortos.am62x.r5f.ti-arm-clang.release.lib : ClockP_nortos.obj (.text.ClockP_Params_init)
                  43c107ba    00000006     --HOLE-- [fill = 0]
                  43c107c0    0000000a                                               : ClockP_nortos.obj (.text.ClockP_isActive)
                  43c107ca    00000006     --HOLE-- [fill = 0]
                  43c107d0    0000000a                                               : TimerP.obj (.text.TimerP_start)
                  43c107da    00000006     --HOLE-- [fill = 0]
                  43c107e0    00000008                                               : printf.obj (.text._out_char)
                  43c107e8    00000008     --HOLE-- [fill = 0]
                  43c107f0    00000004     ti_board_open_close.obj (.text.Board_driversOpen)
                  43c107f4    0000000c     --HOLE-- [fill = 0]
                  43c10800    00000004     drivers.am62x.r5f.ti-arm-clang.release.lib : bootloader_soc.obj (.text.Bootloader_socWaitForFWBoot)
                  43c10804    0000000c     --HOLE-- [fill = 0]
                  43c10810    00000004                                                : lpddr4.obj (.text.CPS_UncachedRead32)
                  43c10814    0000000c     --HOLE-- [fill = 0]
                  43c10820    00000004                                                : lpddr4.obj (.text.CPS_UncachedWrite32)
                  43c10824    0000000c     --HOLE-- [fill = 0]
                  43c10830    00000004     nortos.am62x.r5f.ti-arm-clang.release.lib : ClockP_nortos_r5.obj (.text.ClockP_getTimerCount)
                  43c10834    0000000c     --HOLE-- [fill = 0]
                  43c10840    00000004                                               : ClockP_nortos_r5.obj (.text.ClockP_timerClearOverflowInt)
                  43c10844    0000000c     --HOLE-- [fill = 0]
                  43c10850    00000004     ti_drivers_open_close.obj (.text.Drivers_open)
                  43c10854    0000000c     --HOLE-- [fill = 0]
                  43c10860    00000004     drivers.am62x.r5f.ti-arm-clang.release.lib : bootloader_mem.obj (.text.Mem_imgGetCurOffset)
                  43c10864    0000000c     --HOLE-- [fill = 0]
                  43c10870    00000004                                                : bootloader_mem.obj (.text.Mem_imgSeek)
                  43c10874    0000000c     --HOLE-- [fill = 0]
                  43c10880    00000004     ti_power_clock_config.obj (.text.PowerClock_deinit)
                  43c10884    0000000c     --HOLE-- [fill = 0]
                  43c10890    00000004     nortos.am62x.r5f.ti-arm-clang.release.lib : TimerP.obj (.text.TimerP_getCount)
                  43c10894    0000000c     --HOLE-- [fill = 0]
                  43c108a0    00000004                                               : TimerP.obj (.text.TimerP_getReloadCount)
                  43c108a4    0000000c     --HOLE-- [fill = 0]
                  43c108b0    00000004     libclang_rt.builtins.a : aeabi_div0.c.obj (.text.__aeabi_ldiv0)
                  43c108b4    0000000c     --HOLE-- [fill = 0]
                  43c108c0    00000004     ti_dpl_config.obj (.text.putchar_)
                  43c108c4    0000000c     --HOLE-- [fill = 0]
                  43c108d0    00000002     drivers.am62x.r5f.ti-arm-clang.release.lib : ddr_soc.obj (.text.DDR_socEnableVttRegulator)
                  43c108d2    0000000e     --HOLE-- [fill = 0]
                  43c108e0    00000002     ti_dpl_config.obj (.text.Dpl_deinit)
                  43c108e2    0000000e     --HOLE-- [fill = 0]
                  43c108f0    00000002     drivers.am62x.r5f.ti-arm-clang.release.lib : bootloader_mem.obj (.text.Mem_imgClose)
                  43c108f2    0000000e     --HOLE-- [fill = 0]
                  43c10900    00000002     nortos.am62x.r5f.ti-arm-clang.release.lib : SemaphoreP_nortos.obj (.text.SemaphoreP_destruct)
                  43c10902    0000000e     --HOLE-- [fill = 0]
                  43c10910    00000002                                               : TaskP_nortos.obj (.text.TaskP_yield)
                  43c10912    0000000e     --HOLE-- [fill = 0]
                  43c10920    00000002                                               : printf.obj (.text._out_null)
                  43c10922    0000000e     --HOLE-- [fill = 0]

.const     0    43c10930    00001728     
                  43c10930    00001328     rm_pm_hal_sbl.am62x.r5f.ti-arm-clang.release.lib : devices.obj (.const.devgroup.MAIN)
                  43c11c58    000003f6                                                      : devices.obj (.const.devgroup.MCU_WAKEUP)
                  43c1204e    0000000a                                                      : devices.obj (.const.devgroup.TIFS_INTERNAL)

.text.hwi 
*          0    43c12060    00000790     
                  43c12060    00000452     nortos.am62x.r5f.ti-arm-clang.release.lib : HwiP_armv7r_vim.obj (.text.hwi)
                  43c124b2    00000002     --HOLE-- [fill = 0]
                  43c124b4    00000008                                               : HwiP_armv7r_asm.obj (.tramp.HwiP_enableFIQ.1)
                  43c124bc    00000004     --HOLE-- [fill = 0]
                  43c124c0    0000023e                                               : HwiP_armv7r_handlers_nortos.obj (.text.hwi)
                  43c126fe    00000002     --HOLE-- [fill = 0]
                  43c12700    00000078                                               : HwiP_armv7r_handlers_nortos_asm.obj (.text.hwi)
                  43c12778    00000070                                               : HwiP_armv7r_asm.obj (.text.hwi)
                  43c127e8    00000008     --HOLE-- [fill = 0]

.text.cache 
*          0    43c127f0    00000460     
                  43c127f0    00000340     nortos.am62x.r5f.ti-arm-clang.release.lib : CacheP_armv7r_asm.obj (.text.cache)
                  43c12b30    00000106                                               : CacheP_armv7r.obj (.text.cache)
                  43c12c36    00000002     --HOLE-- [fill = 0]
                  43c12c38    00000008                                               : CacheP_armv7r_asm.obj (.tramp.CacheP_invL1d.1)
                  43c12c40    00000008                                               : HwiP_armv7r_asm.obj (.tramp.HwiP_restore.2)
                  43c12c48    00000008                                               : CacheP_armv7r_asm.obj (.tramp.CacheP_enableL1p.1)

.text.mpu 
*          0    43c12c50    00000240     
                  43c12c50    000001b4     nortos.am62x.r5f.ti-arm-clang.release.lib : MpuP_armv7r.obj (.text.mpu)
                  43c12e04    00000078                                               : MpuP_armv7r_asm.obj (.text.mpu)
                  43c12e7c    00000008                                               : MpuP_armv7r_asm.obj (.tramp.MpuP_isEnableAsm.1)
                  43c12e84    00000008                                               : HwiP_armv7r_asm.obj (.tramp.HwiP_restore.3)
                  43c12e8c    00000004     --HOLE-- [fill = 0]

.text.boot 
*          0    43c12e90    00000130     
                  43c12e90    000000fc     nortos.am62x.r5f.ti-arm-clang.release.lib : boot_armv7r_asm.obj (.text.boot)
                  43c12f8c    00000004     --HOLE-- [fill = 0]
                  43c12f90    0000001e                                               : DebugP_log.obj (.text.boot)
                  43c12fae    00000002     --HOLE-- [fill = 0]
                  43c12fb0    0000000e     ti_dpl_config.obj (.text.boot)
                  43c12fbe    00000002     --HOLE-- [fill = 0]

.data      0    43c12fc0    00003500     
                  43c12fc0    00000afc     rm_pm_hal_sbl.am62x.r5f.ti-arm-clang.release.lib : boardcfg-user.obj (.data.local_rm_config)
                  43c13abc    000007ec     ti_drivers_config.obj (.data.DDRSS_phyReg)
                  43c142a8    0000069c     ti_drivers_config.obj (.data.DDRSS_ctlReg)
                  43c14944    00000564     ti_drivers_config.obj (.data.DDRSS_phyIndepReg)
                  43c14ea8    000003f6     ti_drivers_config.obj (.data.DDRSS_phyRegNum)
                  43c1529e    0000034e     ti_drivers_config.obj (.data.DDRSS_ctlRegNum)
                  43c155ec    000002b2     ti_drivers_config.obj (.data.DDRSS_phyIndepRegNum)
                  43c1589e    00000001     rm_pm_hal_sbl.am62x.r5f.ti-arm-clang.release.lib : rm_core.obj (.data.region_mapped)
                  43c1589f    00000001     --HOLE-- [fill = 0]
                  43c158a0    000001ec                                                      : rm_core.obj (.data.resasg_indexer)
                  43c15a8c    0000012c                                                      : ra_cfg.obj (.data.ra_inst)
                  43c15bb8    000000f0     libc.a : defs.c.obj (.data._ftable)
                  43c15ca8    000000f0     rm_pm_hal_sbl.am62x.r5f.ti-arm-clang.release.lib : udmap_cfg.obj (.data.udmap_inst)
                  43c15d98    000000c4     drivers.am62x.r5f.ti-arm-clang.release.lib : bootloader_soc.obj (.data.gAddrTranslateInfo)
                  43c15e5c    000000c0     ti_dpl_config.obj (.data.gMpuRegionConfig)
                  43c15f1c    000000a8     drivers.am62x.r5f.ti-arm-clang.release.lib : bootloader_soc.obj (.data.gCoreBootInfo)
                  43c15fc4    0000009c                                                : uart_v0.obj (.data.gUartDrvObj)
                  43c16060    00000078     libsysbm.a : host_device.c.obj (.data._device)
                  43c160d8    00000070     rm_pm_hal_sbl.am62x.r5f.ti-arm-clang.release.lib : ir_cfg.obj (.data.ir_inst)
                  43c16148    00000060     sciclient_direct_sbl.am62x.r5f.ti-arm-clang.release.lib : sciclient.obj (.data..L_MergedGlobals)
                  43c161a8    0000005c     rm_pm_hal_sbl.am62x.r5f.ti-arm-clang.release.lib : ia_cfg.obj (.data.ia_inst)
                  43c16204    00000058     ti_drivers_open_close.obj (.data.gUartParams)
                  43c1625c    00000050     libsysbm.a : host_device.c.obj (.data._stream)
                  43c162ac    00000048     sciclient_direct_sbl.am62x.r5f.ti-arm-clang.release.lib : sciclient.obj (.data..L_MergedGlobals.1)
                  43c162f4    00000004     libc.a : defs.c.obj (.data.__TI_ft_end)
                  43c162f8    00000030     ti_drivers_config.obj (.data.gDdrParams)
                  43c16328    00000020     sciclient_direct_sbl.am62x.r5f.ti-arm-clang.release.lib : sciclient_direct_wrapper.obj (.data.gSciclientRomSecProxyCfg)
                  43c16348    00000020                                                             : sciclient_secureProxyCfg.obj (.data.gSciclient_secProxyCfg)
                  43c16368    0000001c     ti_drivers_config.obj (.data.gBootloaderConfig)
                  43c16384    00000018     ti_dpl_config.obj (.data.gClockConfig)
                  43c1639c    00000018     ti_pinmux_config.obj (.data.gPinMuxMainDomainCfg)
                  43c163b4    00000018     ti_power_clock_config.obj (.data.gSocModulesClockFrequency)
                  43c163cc    00000018     rm_pm_hal_sbl.am62x.r5f.ti-arm-clang.release.lib : udmap_cfg.obj (.data.rom_usage_DMASS0_PKTDMA_0)
                  43c163e4    00000014     drivers.am62x.r5f.ti-arm-clang.release.lib : bootloader_mem.obj (.data.gBootloaderMemFxns)
                  43c163f8    00000014                                                : bootloader_soc.obj (.data.gResMemSection)
                  43c1640c    00000010     rm_pm_hal_sbl.am62x.r5f.ti-arm-clang.release.lib : trace.obj (.data..L_MergedGlobals)
                  43c1641c    00000010     ti_power_clock_config.obj (.data.gSocModules)
                  43c1642c    00000004     libc.a : _lock.c.obj (.data._lock)
                  43c16430    0000000c     nortos.am62x.r5f.ti-arm-clang.release.lib : AddrTranslateP.obj (.data.gAddrTranslateConfig)
                  43c1643c    0000000c     ti_dpl_config.obj (.data.gMpuConfig)
                  43c16448    00000008     libc.a : exit.c.obj (.data..L_MergedGlobals)
                  43c16450    00000008     rm_pm_hal_sbl.am62x.r5f.ti-arm-clang.release.lib : device.obj (.data..L_MergedGlobals)
                  43c16458    00000008                                                      : device_pm.obj (.data.device_notifiers)
                  43c16460    00000008     ti_drivers_config.obj (.data.gBootloader0Args)
                  43c16468    00000008     ti_dpl_config.obj (.data.gCacheConfig)
                  43c16470    00000008     ti_pinmux_config.obj (.data.gPinMuxMcuDomainCfg)
                  43c16478    00000008     ti_drivers_config.obj (.data.gUartAttrs)
                  43c16480    00000008     ti_drivers_config.obj (.data.gUartConfig)
                  43c16488    00000004     libc.a : _lock.c.obj (.data._unlock)
                  43c1648c    00000004     ti_drivers_config.obj (.data.gBootloaderConfigNum)
                  43c16490    00000004     nortos.am62x.r5f.ti-arm-clang.release.lib : CacheP_armv7r.obj (.data.gCacheL1dCacheLineSize)
                  43c16494    00000004                                               : CacheP_armv7r.obj (.data.gCacheL1pCacheLineSize)
                  43c16498    00000004                                               : DebugP_log.obj (.data.gDebugLogZone)
                  43c1649c    00000004     ti_dpl_config.obj (.data.gHwiConfig)
                  43c164a0    00000004     ti_drivers_config.obj (.data.gUartConfigNum)
                  43c164a4    00000004     ti_drivers_config.obj (.data.gUartDmaConfigNum)
                  43c164a8    00000004     ti_drivers_config.obj (.data.operatingMode)
                  43c164ac    00000004     sciclient_direct_sbl.am62x.r5f.ti-arm-clang.release.lib : sciclient_rom.obj (.data.pSciclient_secProxyCfg)
                  43c164b0    00000004     rm_pm_hal_sbl.am62x.r5f.ti-arm-clang.release.lib : ia_cfg.obj (.data.rom_usage_DMASS0_INTAGGR_0)
                  43c164b4    00000004                                                      : ia_cfg.obj (.data.rom_usage_unmapped_events_DMASS0_INTAGGR_0)
                  43c164b8    00000004     drivers.am62x.r5f.ti-arm-clang.release.lib : bootloader_soc.obj (.data.selfcoreEntry)
                  43c164bc    00000001     libc.a : memory.c.obj (.data.memory_is_initialized)
                  43c164bd    00000003     --HOLE-- [fill = 0]

.rodata    0    43c164c0    00003c20     
                  43c164c0    00001010     rm_pm_hal_sbl.am62x.r5f.ti-arm-clang.release.lib : clocks.obj (.rodata.soc_clock_data)
                  43c174d0    00000440     drivers.am62x.r5f.ti-arm-clang.release.lib : bootloader_soc.obj (.rodata.str1.1)
                  43c17910    00000390     rm_pm_hal_sbl.am62x.r5f.ti-arm-clang.release.lib : devices.obj (.rodata.soc_device_data_arr)
                  43c17ca0    00000200     drivers.am62x.r5f.ti-arm-clang.release.lib : crc16.obj (.rodata.crc16tab)
                  43c17ea0    000001a2                                                : ddr.obj (.rodata.str1.1)
                  43c18042    00000002     rm_pm_hal_sbl.am62x.r5f.ti-arm-clang.release.lib : irq_cfg.obj (.rodata.irq_global_event_types_count)
                  43c18044    00000180                                                      : clocks.obj (.rodata.soc_pll_table)
                  43c181c4    00000178     drivers.am62x.r5f.ti-arm-clang.release.lib : bootloader.obj (.rodata.str1.1)
                  43c1833c    00000135                                                : uart_v0.obj (.rodata.str1.1)
                  43c18471    00000001     rm_pm_hal_sbl.am62x.r5f.ti-arm-clang.release.lib : host_idx_mapping.obj (.rodata.soc_host_indexes_sz)
                  43c18472    00000132     drivers.am62x.r5f.ti-arm-clang.release.lib : lpddr4_16bit.obj (.rodata.CtlIntMap)
                  43c185a4    00000103     nortos.am62x.r5f.ti-arm-clang.release.lib : TimerP.obj (.rodata.str1.1)
                  43c186a7    000000fe     rm_pm_hal_sbl.am62x.r5f.ti-arm-clang.release.lib : host_idx_mapping.obj (.rodata.soc_host_indexes)
                  43c187a5    000000f0     sciclient_direct_sbl.am62x.r5f.ti-arm-clang.release.lib : sciclient_direct_wrapper.obj (.rodata.str1.1)
                  43c18895    00000003     --HOLE-- [fill = 0]
                  43c18898    000000dc     drivers.am62x.r5f.ti-arm-clang.release.lib : sciclient_fmwSecureProxyMap.obj (.rodata.gSciclientMap)
                  43c18974    000000ac     nortos.am62x.r5f.ti-arm-clang.release.lib : ClockP_nortos_r5.obj (.rodata.str1.1)
                  43c18a20    00000090     rm_pm_hal_sbl.am62x.r5f.ti-arm-clang.release.lib : rm_udmap.obj (.rodata.local_rm_udmap_ch_valid_masks)
                  43c18ab0    0000006c                                                      : udmap_cfg.obj (.rodata.rx_ch_types_DMASS0_PKTDMA_0)
                  43c18b1c    0000006c                                                      : clocks.obj (.rodata.soc_clock_freq_defaults)
                  43c18b88    0000006b     nortos.am62x.r5f.ti-arm-clang.release.lib : SemaphoreP_nortos.obj (.rodata.str1.1)
                  43c18bf3    00000001     --HOLE-- [fill = 0]
                  43c18bf4    00000060     rm_pm_hal_sbl.am62x.r5f.ti-arm-clang.release.lib : ia_cfg.obj (.rodata.unmapped_events_DMASS0_INTAGGR_0)
                  43c18c54    0000005a     nortos.am62x.r5f.ti-arm-clang.release.lib : ClockP_nortos.obj (.rodata.str1.1)
                  43c18cae    00000002     --HOLE-- [fill = 0]
                  43c18cb0    00000050                                               : printf.obj (.rodata._ftoa.pow10)
                  43c18d00    00000050     rm_pm_hal_sbl.am62x.r5f.ti-arm-clang.release.lib : ra_cfg.obj (.rodata.ring_types_DMASS0_PKTDMA_0)
                  43c18d50    0000004b     drivers.am62x.r5f.ti-arm-clang.release.lib : uart_dma.obj (.rodata.str1.1)
                  43c18d9b    00000001     --HOLE-- [fill = 0]
                  43c18d9c    00000048                                                : bootloader_soc.obj (.rodata.gSOC_r5fVectors)
                  43c18de4    00000048     rm_pm_hal_sbl.am62x.r5f.ti-arm-clang.release.lib : devices.obj (.rodata.soc_devgroups)
                  43c18e2c    00000048                                                      : udmap_cfg.obj (.rodata.tx_ch_types_DMASS0_PKTDMA_0)
                  43c18e74    00000046     ti_drivers_open_close.obj (.rodata.str1.1)
                  43c18eba    00000040     rm_pm_hal_sbl.am62x.r5f.ti-arm-clang.release.lib : clocks.obj (.rodata.clk_MAIN_OBSCLK0_MUX_SEL_parents)
                  43c18efa    00000036                                                      : ia_pe_conf.obj (.rodata.ia_soc_pe_init_list)
                  43c18f30    00000032                                                      : clk_pll_16fft.obj (.rodata.postdiv_mapping)
                  43c18f62    00000002     --HOLE-- [fill = 0]
                  43c18f64    00000030                                                      : clk_pll_16fft.obj (.rodata.pll_16fft_hsdiv_data)
                  43c18f94    00000030                                                      : clk_pll_16fft.obj (.rodata.pll_16fft_postdiv_data)
                  43c18fc4    00000030                                                      : clk_pll_16fft.obj (.rodata.pll_16fft_raw_data)
                  43c18ff4    0000002d     nortos.am62x.r5f.ti-arm-clang.release.lib : DebugP_log.obj (.rodata.str1.1)
                  43c19021    00000029     main.obj (.rodata.str1.1)
                  43c1904a    00000002     --HOLE-- [fill = 0]
                  43c1904c    00000028     rm_pm_hal_sbl.am62x.r5f.ti-arm-clang.release.lib : clocks.obj (.rodata.soc_clock_ranges)
                  43c19074    00000024                                                      : clk_div.obj (.rodata.clk_drv_div_fixed)
                  43c19098    00000024                                                      : clk_pll_16fft.obj (.rodata.clk_drv_div_pll_16fft_hsdiv)
                  43c190bc    00000024                                                      : clk_pll_16fft.obj (.rodata.clk_drv_div_pll_16fft_postdiv)
                  43c190e0    00000024                                                      : clk_div.obj (.rodata.clk_drv_div_reg)
                  43c19104    00000024                                                      : clk_div.obj (.rodata.clk_drv_div_reg_go)
                  43c19128    00000020                                                      : clocks.obj (.rodata.clk_MAIN_TIMERCLKn_SEL_out0_parents)
                  43c19148    00000020                                                      : clocks.obj (.rodata.clk_MCU_OBSCLK_MUX_SEL_parents)
                  43c19168    00000020                                                      : clk_mux.obj (.rodata.clk_drv_mux_reg)
                  43c19188    00000020                                                      : clk_pllctrl.obj (.rodata.clk_drv_pllctrl_mux_reg_ro)
                  43c191a8    0000001e                                                      : irq_cfg.obj (.rodata.irq_global_event_types)
                  43c191c6    0000001e     sciclient_direct_sbl.am62x.r5f.ti-arm-clang.release.lib : uart_print.obj (.rodata.str1.1)
                  43c191e4    0000001c     drivers.am62x.r5f.ti-arm-clang.release.lib : bootloader_soc.obj (.rodata..L__const.Bootloader_socRprcToCslCoreId.rprcCoreIds)
                  43c19200    00000018     rm_pm_hal_sbl.am62x.r5f.ti-arm-clang.release.lib : clk_soc_hfosc0.obj (.rodata..L__const.clk_soc_hfosc0_get_freq.freq_table)
                  43c19218    00000018                                                      : clk_fixed.obj (.rodata.clk_drv_fixed)
                  43c19230    00000018                                                      : clk_dev.obj (.rodata.clk_drv_from_device)
                  43c19248    00000018                                                      : clk_pll_16fft.obj (.rodata.clk_drv_pll_16fft)
                  43c19260    00000018                                                      : clk_soc_hfosc0.obj (.rodata.clk_drv_soc_hfosc0)
                  43c19278    00000018                                                      : clk_soc_lfosc0.obj (.rodata.clk_drv_soc_lfosc0)
                  43c19290    00000018                                                      : ra_cfg.obj (.rodata.ring_types_DMASS0_BCDMA_0)
                  43c192a8    00000018                                                      : fw_caps.obj (.rodata.soc_fw_caps)
                  43c192c0    00000014                                                      : clocks.obj (.rodata.clk_data_pllfracf2_ssmod_16fft_main_0)
                  43c192d4    00000014                                                      : clocks.obj (.rodata.clk_data_pllfracf2_ssmod_16fft_main_12)
                  43c192e8    00000014                                                      : clocks.obj (.rodata.clk_data_pllfracf2_ssmod_16fft_main_15)
                  43c192fc    00000014                                                      : clocks.obj (.rodata.clk_data_pllfracf2_ssmod_16fft_main_16)
                  43c19310    00000014                                                      : clocks.obj (.rodata.clk_data_pllfracf2_ssmod_16fft_main_17)
                  43c19324    00000014                                                      : clocks.obj (.rodata.clk_data_pllfracf2_ssmod_16fft_main_1)
                  43c19338    00000014                                                      : clocks.obj (.rodata.clk_data_pllfracf2_ssmod_16fft_main_2)
                  43c1934c    00000014                                                      : clocks.obj (.rodata.clk_data_pllfracf2_ssmod_16fft_main_8)
                  43c19360    00000014                                                      : clocks.obj (.rodata.clk_data_pllfracf2_ssmod_16fft_mcu_0)
                  43c19374    00000004                                                      : clocks.obj (.rodata.clk_CLKOUT0_CTRL_parents)
                  43c19378    00000013     sciclient_direct_sbl.am62x.r5f.ti-arm-clang.release.lib : sciclient_boardcfg.obj (.rodata..L__const.Sciclient_boardCfgPm.request)
                  43c1938b    00000005     rm_pm_hal_sbl.am62x.r5f.ti-arm-clang.release.lib : trace-uart.obj (.rodata.str1.1)
                  43c19390    00000013     sciclient_direct_sbl.am62x.r5f.ti-arm-clang.release.lib : sciclient_boardcfg.obj (.rodata..L__const.Sciclient_boardCfgRm.request)
                  43c193a3    00000001     --HOLE-- [fill = 0]
                  43c193a4    00000012     rm_pm_hal_sbl.am62x.r5f.ti-arm-clang.release.lib : udmap_cfg.obj (.rodata.bc_ch_types_DMASS0_BCDMA_0)
                  43c193b6    00000012                                                      : udmap_cfg.obj (.rodata.rx_ch_types_DMASS0_BCDMA_0)
                  43c193c8    00000012     nortos.am62x.r5f.ti-arm-clang.release.lib : printf.obj (.rodata.str1.1)
                  43c193da    00000012     rm_pm_hal_sbl.am62x.r5f.ti-arm-clang.release.lib : udmap_cfg.obj (.rodata.tx_ch_types_DMASS0_BCDMA_0)
                  43c193ec    00000010                                                      : dmsc.obj (.rodata.am62x_sleep_modes)
                  43c193fc    00000010                                                      : clocks.obj (.rodata.clk_AUDIO_REFCLKn_out0_parents)
                  43c1940c    00000010                                                      : clocks.obj (.rodata.clk_MAIN_CP_GEMAC_CPTS_CLK_SEL_parents)
                  43c1941c    00000010                                                      : clocks.obj (.rodata.clk_MCU_TIMERCLKn_SEL_out0_parents)
                  43c1942c    00000010                                                      : clocks.obj (.rodata.clk_MCU_TIMERCLKn_SEL_out1_parents)
                  43c1943c    00000010                                                      : clocks.obj (.rodata.clk_MCU_TIMERCLKn_SEL_out2_parents)
                  43c1944c    00000010                                                      : clocks.obj (.rodata.clk_MCU_TIMERCLKn_SEL_out3_parents)
                  43c1945c    00000010                                                      : clocks.obj (.rodata.clk_WKUP_CLKOUT_SEL_parents)
                  43c1946c    00000010                                                      : clocks.obj (.rodata.clk_WKUP_TIMERCLKn_SEL_out0_parents)
                  43c1947c    00000010                                                      : clocks.obj (.rodata.clk_WKUP_TIMERCLKn_SEL_out1_parents)
                  43c1948c    00000010                                                      : clocks.obj (.rodata.clk_data_AUDIO_REFCLKn_out0)
                  43c1949c    00000010                                                      : clocks.obj (.rodata.clk_data_AUDIO_REFCLKn_out1)
                  43c194ac    00000010                                                      : clocks.obj (.rodata.clk_data_CLKOUT0_CTRL_out0)
                  43c194bc    00000010                                                      : clocks.obj (.rodata.clk_data_CLK_32K_RC_SEL_out0)
                  43c194cc    00000010                                                      : clocks.obj (.rodata.clk_data_MAIN_CP_GEMAC_CPTS_CLK_SEL_out0)
                  43c194dc    00000010                                                      : clocks.obj (.rodata.clk_data_MAIN_DSS_DPI1_out0)
                  43c194ec    00000010                                                      : clocks.obj (.rodata.clk_data_MAIN_EMMCSD0_IO_CLKLB_SEL_out0)
                  43c194fc    00000010                                                      : clocks.obj (.rodata.clk_data_MAIN_EMMCSD0_REFCLK_SEL_out0)
                  43c1950c    00000010                                                      : clocks.obj (.rodata.clk_data_MAIN_EMMCSD1_IO_CLKLB_SEL_out0)
                  43c1951c    00000010                                                      : clocks.obj (.rodata.clk_data_MAIN_EMMCSD1_REFCLK_SEL_out0)
                  43c1952c    00000010                                                      : clocks.obj (.rodata.clk_data_MAIN_EMMCSD2_IO_CLKLB_SEL_out0)
                  43c1953c    00000010                                                      : clocks.obj (.rodata.clk_data_MAIN_EMMCSD2_REFCLK_SEL_out0)
                  43c1954c    00000010                                                      : clocks.obj (.rodata.clk_data_MAIN_GPMC_FCLK_SEL_out0)
                  43c1955c    00000010                                                      : clocks.obj (.rodata.clk_data_MAIN_GTCCLK_SEL_out0)
                  43c1956c    00000010                                                      : clocks.obj (.rodata.clk_data_MAIN_ICSSM_CORE_CLK_SEL_out0)
                  43c1957c    00000010                                                      : clocks.obj (.rodata.clk_data_MAIN_ICSSM_IEPCLK_SEL_out0)
                  43c1958c    00000010                                                      : clocks.obj (.rodata.clk_data_MAIN_MCANn_CLK_SEL_out0)
                  43c1959c    00000010                                                      : clocks.obj (.rodata.clk_data_MAIN_OBSCLK0_MUX_SEL_out0)
                  43c195ac    00000010                                                      : clocks.obj (.rodata.clk_data_MAIN_OSPI_LOOPBACK_CLK_SEL_out0)
                  43c195bc    00000010                                                      : clocks.obj (.rodata.clk_data_MAIN_OSPI_REF_CLK_SEL_out0)
                  43c195cc    00000010                                                      : clocks.obj (.rodata.clk_data_MAIN_TIMERCLKn_SEL_out0)
                  43c195dc    00000010                                                      : clocks.obj (.rodata.clk_data_MAIN_TIMERCLKn_SEL_out1)
                  43c195ec    00000010                                                      : clocks.obj (.rodata.clk_data_MAIN_TIMERCLKn_SEL_out2)
                  43c195fc    00000010                                                      : clocks.obj (.rodata.clk_data_MAIN_TIMERCLKn_SEL_out3)
                  43c1960c    00000010                                                      : clocks.obj (.rodata.clk_data_MAIN_TIMERCLKn_SEL_out4)
                  43c1961c    00000010                                                      : clocks.obj (.rodata.clk_data_MAIN_TIMERCLKn_SEL_out5)
                  43c1962c    00000010                                                      : clocks.obj (.rodata.clk_data_MAIN_TIMERCLKn_SEL_out6)
                  43c1963c    00000010                                                      : clocks.obj (.rodata.clk_data_MAIN_TIMERCLKn_SEL_out7)
                  43c1964c    00000010                                                      : clocks.obj (.rodata.clk_data_MAIN_USB0_REFCLK_SEL_out0)
                  43c1965c    00000010                                                      : clocks.obj (.rodata.clk_data_MAIN_USB1_REFCLK_SEL_out0)
                  43c1966c    00000010                                                      : clocks.obj (.rodata.clk_data_MAIN_WWDTCLKn_SEL_out0)
                  43c1967c    00000010                                                      : clocks.obj (.rodata.clk_data_MAIN_WWDTCLKn_SEL_out1)
                  43c1968c    00000010                                                      : clocks.obj (.rodata.clk_data_MAIN_WWDTCLKn_SEL_out2)
                  43c1969c    00000010                                                      : clocks.obj (.rodata.clk_data_MAIN_WWDTCLKn_SEL_out3)
                  43c196ac    00000010                                                      : clocks.obj (.rodata.clk_data_MAIN_WWDTCLKn_SEL_out4)
                  43c196bc    00000010                                                      : clocks.obj (.rodata.clk_data_MAIN_spi0_mstr_lp_clksel_out0)
                  43c196cc    00000010                                                      : clocks.obj (.rodata.clk_data_MAIN_spi1_mstr_lp_clksel_out0)
                  43c196dc    00000010                                                      : clocks.obj (.rodata.clk_data_MAIN_spi2_mstr_lp_clksel_out0)
                  43c196ec    00000010                                                      : clocks.obj (.rodata.clk_data_MAIN_usart0_fclk_sel_out0)
                  43c196fc    00000010                                                      : clocks.obj (.rodata.clk_data_MAIN_usart1_fclk_sel_out0)
                  43c1970c    00000010                                                      : clocks.obj (.rodata.clk_data_MAIN_usart2_fclk_sel_out0)
                  43c1971c    00000010                                                      : clocks.obj (.rodata.clk_data_MAIN_usart3_fclk_sel_out0)
                  43c1972c    00000010                                                      : clocks.obj (.rodata.clk_data_MAIN_usart4_fclk_sel_out0)
                  43c1973c    00000010                                                      : clocks.obj (.rodata.clk_data_MAIN_usart5_fclk_sel_out0)
                  43c1974c    00000010                                                      : clocks.obj (.rodata.clk_data_MAIN_usart6_fclk_sel_out0)
                  43c1975c    00000010                                                      : clocks.obj (.rodata.clk_data_MCASPn_AHCLKSEL_AHCLKR_out0)
                  43c1976c    00000010                                                      : clocks.obj (.rodata.clk_data_MCASPn_AHCLKSEL_AHCLKR_out1)
                  43c1977c    00000010                                                      : clocks.obj (.rodata.clk_data_MCASPn_AHCLKSEL_AHCLKR_out2)
                  43c1978c    00000010                                                      : clocks.obj (.rodata.clk_data_MCASPn_AHCLKSEL_AHCLKX_out0)
                  43c1979c    00000010                                                      : clocks.obj (.rodata.clk_data_MCASPn_AHCLKSEL_AHCLKX_out1)
                  43c197ac    00000010                                                      : clocks.obj (.rodata.clk_data_MCASPn_AHCLKSEL_AHCLKX_out2)
                  43c197bc    00000010                                                      : clocks.obj (.rodata.clk_data_MCASPn_CLKSEL_AUXCLK_out0)
                  43c197cc    00000010                                                      : clocks.obj (.rodata.clk_data_MCASPn_CLKSEL_AUXCLK_out1)
                  43c197dc    00000010                                                      : clocks.obj (.rodata.clk_data_MCASPn_CLKSEL_AUXCLK_out2)
                  43c197ec    00000010                                                      : clocks.obj (.rodata.clk_data_MCU_GPIO0_CLKSEL_out0)
                  43c197fc    00000010                                                      : clocks.obj (.rodata.clk_data_MCU_M4FSS_CLKSEL_out0)
                  43c1980c    00000010                                                      : clocks.obj (.rodata.clk_data_MCU_MCANn_CLK_SEL_out0)
                  43c1981c    00000010                                                      : clocks.obj (.rodata.clk_data_MCU_MCANn_CLK_SEL_out1)
                  43c1982c    00000010                                                      : clocks.obj (.rodata.clk_data_MCU_OBSCLK_MUX_SEL_out0)
                  43c1983c    00000010                                                      : clocks.obj (.rodata.clk_data_MCU_OBSCLK_OUTMUX_SEL_out0)
                  43c1984c    00000010                                                      : clocks.obj (.rodata.clk_data_MCU_TIMERCLKn_SEL_out0)
                  43c1985c    00000010                                                      : clocks.obj (.rodata.clk_data_MCU_TIMERCLKn_SEL_out1)
                  43c1986c    00000010                                                      : clocks.obj (.rodata.clk_data_MCU_TIMERCLKn_SEL_out2)
                  43c1987c    00000010                                                      : clocks.obj (.rodata.clk_data_MCU_TIMERCLKn_SEL_out3)
                  43c1988c    00000010                                                      : clocks.obj (.rodata.clk_data_MCU_WWDTCLK_SEL_out0)
                  43c1989c    00000010                                                      : clocks.obj (.rodata.clk_data_MCU_spi0_mstr_lp_clksel_out0)
                  43c198ac    00000010                                                      : clocks.obj (.rodata.clk_data_MCU_spi1_mstr_lp_clksel_out0)
                  43c198bc    00000010                                                      : clocks.obj (.rodata.clk_data_RTC_CLK_SEL_out0)
                  43c198cc    00000010                                                      : clocks.obj (.rodata.clk_data_WKUP_CLKOUT_SEL_out0)
                  43c198dc    00000010                                                      : clocks.obj (.rodata.clk_data_WKUP_CLKSEL_out0)
                  43c198ec    00000010                                                      : clocks.obj (.rodata.clk_data_WKUP_TIMERCLKn_SEL_out0)
                  43c198fc    00000010                                                      : clocks.obj (.rodata.clk_data_WKUP_TIMERCLKn_SEL_out1)
                  43c1990c    00000010                                                      : clocks.obj (.rodata.clk_data_WKUP_WWDTCLK_SEL_out0)
                  43c1991c    00000010                                                      : clocks.obj (.rodata.clk_data_sam62_pll_ctrl_wrap_main_0_sysclkout_clk)
                  43c1992c    00000010                                                      : clocks.obj (.rodata.clk_data_sam62_pll_ctrl_wrap_mcu_0_sysclkout_clk)
                  43c1993c    00000010                                                      : psc.obj (.rodata.cst16)
                  43c1994c    00000004                                                      : clocks.obj (.rodata.clk_MAIN_DSS_DPI1_parents)
                  43c19950    00000010                                                      : ir_cfg.obj (.rodata.mmr_CMP_EVENT_INTROUTER0_INTR_ROUTER_CFG)
                  43c19960    00000010                                                      : udmap_cfg.obj (.rodata.mmr_DMASS0_BCDMA_0_BCDMA_BCHAN)
                  43c19970    00000010                                                      : udmap_cfg.obj (.rodata.mmr_DMASS0_BCDMA_0_BCDMA_BCHANRT)
                  43c19980    00000010                                                      : ra_cfg.obj (.rodata.mmr_DMASS0_BCDMA_0_BCDMA_GCFG)
                  43c19990    00000010                                                      : udmap_cfg.obj (.rodata.mmr_DMASS0_BCDMA_0_BCDMA_GCFG)
                  43c199a0    00000010                                                      : udmap_cfg.obj (.rodata.mmr_DMASS0_BCDMA_0_BCDMA_RCHAN)
                  43c199b0    00000010                                                      : udmap_cfg.obj (.rodata.mmr_DMASS0_BCDMA_0_BCDMA_RCHANRT)
                  43c199c0    00000010                                                      : ra_cfg.obj (.rodata.mmr_DMASS0_BCDMA_0_BCDMA_RING)
                  43c199d0    00000010                                                      : ra_cfg.obj (.rodata.mmr_DMASS0_BCDMA_0_BCDMA_RINGRT)
                  43c199e0    00000010                                                      : udmap_cfg.obj (.rodata.mmr_DMASS0_BCDMA_0_BCDMA_TCHAN)
                  43c199f0    00000010                                                      : udmap_cfg.obj (.rodata.mmr_DMASS0_BCDMA_0_BCDMA_TCHANRT)
                  43c19a00    00000010                                                      : ia_cfg.obj (.rodata.mmr_DMASS0_INTAGGR_0_INTAGGR_GCNTRTI)
                  43c19a10    00000010                                                      : ia_cfg.obj (.rodata.mmr_DMASS0_INTAGGR_0_INTAGGR_IMAP)
                  43c19a20    00000010                                                      : ia_cfg.obj (.rodata.mmr_DMASS0_INTAGGR_0_INTAGGR_INTR)
                  43c19a30    00000010                                                      : ia_cfg.obj (.rodata.mmr_DMASS0_INTAGGR_0_INTAGGR_UNMAP)
                  43c19a40    00000010                                                      : ra_cfg.obj (.rodata.mmr_DMASS0_PKTDMA_0_PKTDMA_GCFG)
                  43c19a50    00000010                                                      : udmap_cfg.obj (.rodata.mmr_DMASS0_PKTDMA_0_PKTDMA_GCFG)
                  43c19a60    00000010                                                      : udmap_cfg.obj (.rodata.mmr_DMASS0_PKTDMA_0_PKTDMA_RCHAN)
                  43c19a70    00000010                                                      : udmap_cfg.obj (.rodata.mmr_DMASS0_PKTDMA_0_PKTDMA_RCHANRT)
                  43c19a80    00000010                                                      : udmap_cfg.obj (.rodata.mmr_DMASS0_PKTDMA_0_PKTDMA_RFLOW)
                  43c19a90    00000010                                                      : ra_cfg.obj (.rodata.mmr_DMASS0_PKTDMA_0_PKTDMA_RING)
                  43c19aa0    00000010                                                      : ra_cfg.obj (.rodata.mmr_DMASS0_PKTDMA_0_PKTDMA_RINGRT)
                  43c19ab0    00000010                                                      : udmap_cfg.obj (.rodata.mmr_DMASS0_PKTDMA_0_PKTDMA_TCHAN)
                  43c19ac0    00000010                                                      : udmap_cfg.obj (.rodata.mmr_DMASS0_PKTDMA_0_PKTDMA_TCHANRT)
                  43c19ad0    00000010                                                      : ra_cfg.obj (.rodata.mmr_DMASS0_RINGACC_0_RINGACC_CFG)
                  43c19ae0    00000010                                                      : ra_cfg.obj (.rodata.mmr_DMASS0_RINGACC_0_RINGACC_GCFG)
                  43c19af0    00000010                                                      : ra_cfg.obj (.rodata.mmr_DMASS0_RINGACC_0_RINGACC_RT)
                  43c19b00    00000010                                                      : ir_cfg.obj (.rodata.mmr_MAIN_GPIOMUX_INTROUTER0_INTR_ROUTER_CFG)
                  43c19b10    00000010                                                      : ir_cfg.obj (.rodata.mmr_TIMESYNC_EVENT_ROUTER0_INTR_ROUTER_CFG)
                  43c19b20    00000010                                                      : ir_cfg.obj (.rodata.mmr_WKUP_MCU_GPIOMUX_INTROUTER0_INTR_ROUTER_CFG)
                  43c19b30    00000010                                                      : psc.obj (.rodata.psc_drv)
                  43c19b40    0000000c                                                      : rm_ra.obj (.rodata..Lswitch.table.rm_ra_validate_ring_index)
                  43c19b4c    0000000c                                                      : clocks.obj (.rodata.clk_data_USART_Programmable_Clock_Divider_out0)
                  43c19b58    0000000c                                                      : clocks.obj (.rodata.clk_data_USART_Programmable_Clock_Divider_out1)
                  43c19b64    0000000c                                                      : clocks.obj (.rodata.clk_data_USART_Programmable_Clock_Divider_out2)
                  43c19b70    0000000c                                                      : clocks.obj (.rodata.clk_data_USART_Programmable_Clock_Divider_out3)
                  43c19b7c    0000000c                                                      : clocks.obj (.rodata.clk_data_USART_Programmable_Clock_Divider_out4)
                  43c19b88    0000000c                                                      : clocks.obj (.rodata.clk_data_USART_Programmable_Clock_Divider_out5)
                  43c19b94    0000000c                                                      : clocks.obj (.rodata.clk_data_USART_Programmable_Clock_Divider_out6)
                  43c19ba0    0000000c                                                      : clocks.obj (.rodata.clk_data_hsdiv0_16fft_main_12_hsdiv0)
                  43c19bac    0000000c                                                      : clocks.obj (.rodata.clk_data_hsdiv0_16fft_main_16_hsdiv0)
                  43c19bb8    0000000c                                                      : clocks.obj (.rodata.clk_data_hsdiv0_16fft_main_17_hsdiv0)
                  43c19bc4    0000000c                                                      : clocks.obj (.rodata.clk_data_hsdiv0_16fft_main_8_hsdiv0)
                  43c19bd0    0000000c                                                      : clocks.obj (.rodata.clk_data_hsdiv0_16fft_mcu_32khz_gen_0_hsdiv0)
                  43c19bdc    0000000c                                                      : clocks.obj (.rodata.clk_data_hsdiv1_16fft_main_15_hsdiv0)
                  43c19be8    0000000c                                                      : clocks.obj (.rodata.clk_data_hsdiv1_16fft_main_15_hsdiv1)
                  43c19bf4    0000000c                                                      : clocks.obj (.rodata.clk_data_hsdiv4_16fft_main_0_hsdiv0)
                  43c19c00    0000000c                                                      : clocks.obj (.rodata.clk_data_hsdiv4_16fft_main_0_hsdiv1)
                  43c19c0c    0000000c                                                      : clocks.obj (.rodata.clk_data_hsdiv4_16fft_main_0_hsdiv2)
                  43c19c18    0000000c                                                      : clocks.obj (.rodata.clk_data_hsdiv4_16fft_main_0_hsdiv3)
                  43c19c24    0000000c                                                      : clocks.obj (.rodata.clk_data_hsdiv4_16fft_main_0_hsdiv4)
                  43c19c30    0000000c                                                      : clocks.obj (.rodata.clk_data_hsdiv4_16fft_main_1_hsdiv0)
                  43c19c3c    0000000c                                                      : clocks.obj (.rodata.clk_data_hsdiv4_16fft_main_1_hsdiv1)
                  43c19c48    0000000c                                                      : clocks.obj (.rodata.clk_data_hsdiv4_16fft_main_1_hsdiv2)
                  43c19c54    0000000c                                                      : clocks.obj (.rodata.clk_data_hsdiv4_16fft_main_1_hsdiv3)
                  43c19c60    0000000c                                                      : clocks.obj (.rodata.clk_data_hsdiv4_16fft_main_1_hsdiv4)
                  43c19c6c    0000000c                                                      : clocks.obj (.rodata.clk_data_hsdiv4_16fft_main_2_hsdiv0)
                  43c19c78    0000000c                                                      : clocks.obj (.rodata.clk_data_hsdiv4_16fft_main_2_hsdiv1)
                  43c19c84    0000000c                                                      : clocks.obj (.rodata.clk_data_hsdiv4_16fft_main_2_hsdiv2)
                  43c19c90    0000000c                                                      : clocks.obj (.rodata.clk_data_hsdiv4_16fft_main_2_hsdiv3)
                  43c19c9c    0000000c                                                      : clocks.obj (.rodata.clk_data_hsdiv4_16fft_main_2_hsdiv4)
                  43c19ca8    0000000c                                                      : clocks.obj (.rodata.clk_data_hsdiv4_16fft_mcu_0_hsdiv0)
                  43c19cb4    0000000c                                                      : clocks.obj (.rodata.clk_data_hsdiv4_16fft_mcu_0_hsdiv1)
                  43c19cc0    0000000c                                                      : clocks.obj (.rodata.clk_data_hsdiv4_16fft_mcu_0_hsdiv2)
                  43c19ccc    0000000c                                                      : clocks.obj (.rodata.clk_data_hsdiv4_16fft_mcu_0_hsdiv3)
                  43c19cd8    0000000c                                                      : clocks.obj (.rodata.clk_data_hsdiv4_16fft_mcu_0_hsdiv4)
                  43c19ce4    0000000c                                                      : clocks.obj (.rodata.clk_data_mcu_obsclk_div_out0)
                  43c19cf0    0000000c                                                      : clocks.obj (.rodata.clk_data_osbclk0_div_out0)
                  43c19cfc    0000000c                                                      : clocks.obj (.rodata.clk_data_postdiv1_16fft_main_1_hsdiv5)
                  43c19d08    0000000c                                                      : clocks.obj (.rodata.clk_data_postdiv1_16fft_main_1_hsdiv6)
                  43c19d14    0000000c                                                      : clocks.obj (.rodata.clk_data_postdiv4_16ff_main_0_hsdiv5)
                  43c19d20    0000000c                                                      : clocks.obj (.rodata.clk_data_postdiv4_16ff_main_0_hsdiv6)
                  43c19d2c    0000000c                                                      : clocks.obj (.rodata.clk_data_postdiv4_16ff_main_0_hsdiv7)
                  43c19d38    0000000c                                                      : clocks.obj (.rodata.clk_data_postdiv4_16ff_main_0_hsdiv8)
                  43c19d44    0000000c                                                      : clocks.obj (.rodata.clk_data_postdiv4_16ff_main_0_hsdiv9)
                  43c19d50    0000000c                                                      : clocks.obj (.rodata.clk_data_postdiv4_16ff_main_2_hsdiv5)
                  43c19d5c    0000000c                                                      : clocks.obj (.rodata.clk_data_postdiv4_16ff_main_2_hsdiv6)
                  43c19d68    0000000c                                                      : clocks.obj (.rodata.clk_data_postdiv4_16ff_main_2_hsdiv7)
                  43c19d74    0000000c                                                      : clocks.obj (.rodata.clk_data_postdiv4_16ff_main_2_hsdiv8)
                  43c19d80    0000000c                                                      : clocks.obj (.rodata.clk_data_postdiv4_16ff_main_2_hsdiv9)
                  43c19d8c    0000000c                                                      : clocks.obj (.rodata.clk_data_sam62_pll_ctrl_wrap_main_0_chip_div1_clk_clk)
                  43c19d98    0000000c                                                      : clocks.obj (.rodata.clk_data_sam62_pll_ctrl_wrap_main_0_chip_div24_clk_clk)
                  43c19da4    0000000c                                                      : clocks.obj (.rodata.clk_data_sam62_pll_ctrl_wrap_mcu_0_chip_div1_clk_clk)
                  43c19db0    0000000c                                                      : clocks.obj (.rodata.clk_data_sam62_pll_ctrl_wrap_mcu_0_chip_div24_clk_clk)
                  43c19dbc    0000000c                                                      : rm_udmap.obj (.rodata.local_udmap_gcfg_valid_masks)
                  43c19dc8    0000000c                                                      : init.obj (.rodata.startups)
                  43c19dd4    0000000b     drivers.am62x.r5f.ti-arm-clang.release.lib : bootloader.obj (.rodata..L__const.Bootloader_getMsgLen.boot_seq_oid)
                  43c19ddf    00000001     --HOLE-- [fill = 0]
                  43c19de0    00000008     rm_pm_hal_sbl.am62x.r5f.ti-arm-clang.release.lib : clocks.obj (.rodata.clk_CLK_32K_RC_SEL_parents)
                  43c19de8    00000008                                                      : clocks.obj (.rodata.clk_MAIN_MCANn_CLK_SEL_parents)
                  43c19df0    00000008                                                      : clocks.obj (.rodata.clk_MAIN_WWDTCLKn_SEL_out0_parents)
                  43c19df8    00000008                                                      : clocks.obj (.rodata.clk_MAIN_WWDTCLKn_SEL_out1_parents)
                  43c19e00    00000008                                                      : clocks.obj (.rodata.clk_MAIN_WWDTCLKn_SEL_out2_parents)
                  43c19e08    00000008                                                      : clocks.obj (.rodata.clk_MAIN_WWDTCLKn_SEL_out3_parents)
                  43c19e10    00000008                                                      : clocks.obj (.rodata.clk_MAIN_WWDTCLKn_SEL_out4_parents)
                  43c19e18    00000008                                                      : clocks.obj (.rodata.clk_MCASPn_AHCLKSEL_AHCLKR_out0_parents)
                  43c19e20    00000008                                                      : clocks.obj (.rodata.clk_MCU_GPIO0_CLKSEL_parents)
                  43c19e28    00000008                                                      : clocks.obj (.rodata.clk_MCU_MCANn_CLK_SEL_out0_parents)
                  43c19e30    00000008                                                      : clocks.obj (.rodata.clk_MCU_WWDTCLK_SEL_parents)
                  43c19e38    00000008                                                      : clocks.obj (.rodata.clk_WKUP_WWDTCLK_SEL_parents)
                  43c19e40    00000008                                                      : rm_ra.obj (.rodata.cst8)
                  43c19e48    00000008                                                      : trace.obj (.rodata.cst8)
                  43c19e50    00000008     sciclient_direct_sbl.am62x.r5f.ti-arm-clang.release.lib : sciclient_direct.obj (.rodata.gcSciclientDirectExtBootX509MagicWord)
                  43c19e58    00000004     rm_pm_hal_sbl.am62x.r5f.ti-arm-clang.release.lib : clocks.obj (.rodata.clk_MAIN_EMMCSD0_IO_CLKLB_SEL_parents)
                  43c19e5c    00000004                                                      : clocks.obj (.rodata.clk_MAIN_EMMCSD0_REFCLK_SEL_parents)
                  43c19e60    00000004                                                      : clocks.obj (.rodata.clk_MAIN_EMMCSD1_IO_CLKLB_SEL_parents)
                  43c19e64    00000004                                                      : clocks.obj (.rodata.clk_MAIN_EMMCSD2_IO_CLKLB_SEL_parents)
                  43c19e68    00000004                                                      : clocks.obj (.rodata.clk_MAIN_GPMC_FCLK_SEL_parents)
                  43c19e6c    00000004                                                      : clocks.obj (.rodata.clk_MAIN_ICSSM_CORE_CLK_SEL_parents)
                  43c19e70    00000004                                                      : clocks.obj (.rodata.clk_MAIN_OSPI_LOOPBACK_CLK_SEL_parents)
                  43c19e74    00000004                                                      : clocks.obj (.rodata.clk_MAIN_OSPI_REF_CLK_SEL_parents)
                  43c19e78    00000004                                                      : clocks.obj (.rodata.clk_MAIN_USB0_REFCLK_SEL_parents)
                  43c19e7c    00000004                                                      : clocks.obj (.rodata.clk_MAIN_spi0_mstr_lp_clksel_parents)
                  43c19e80    00000004                                                      : clocks.obj (.rodata.clk_MAIN_spi1_mstr_lp_clksel_parents)
                  43c19e84    00000004                                                      : clocks.obj (.rodata.clk_MAIN_spi2_mstr_lp_clksel_parents)
                  43c19e88    00000004                                                      : clocks.obj (.rodata.clk_MAIN_usart0_fclk_sel_parents)
                  43c19e8c    00000004                                                      : clocks.obj (.rodata.clk_MAIN_usart1_fclk_sel_parents)
                  43c19e90    00000004                                                      : clocks.obj (.rodata.clk_MAIN_usart2_fclk_sel_parents)
                  43c19e94    00000004                                                      : clocks.obj (.rodata.clk_MAIN_usart3_fclk_sel_parents)
                  43c19e98    00000004                                                      : clocks.obj (.rodata.clk_MAIN_usart4_fclk_sel_parents)
                  43c19e9c    00000004                                                      : clocks.obj (.rodata.clk_MAIN_usart5_fclk_sel_parents)
                  43c19ea0    00000004                                                      : clocks.obj (.rodata.clk_MAIN_usart6_fclk_sel_parents)
                  43c19ea4    00000004                                                      : clocks.obj (.rodata.clk_MCASPn_CLKSEL_AUXCLK_out0_parents)
                  43c19ea8    00000004                                                      : clocks.obj (.rodata.clk_MCU_M4FSS_CLKSEL_parents)
                  43c19eac    00000004                                                      : clocks.obj (.rodata.clk_MCU_OBSCLK_OUTMUX_SEL_parents)
                  43c19eb0    00000004                                                      : clocks.obj (.rodata.clk_MCU_spi0_mstr_lp_clksel_parents)
                  43c19eb4    00000004                                                      : clocks.obj (.rodata.clk_MCU_spi1_mstr_lp_clksel_parents)
                  43c19eb8    00000004                                                      : clocks.obj (.rodata.clk_RTC_CLK_SEL_parents)
                  43c19ebc    00000004                                                      : clocks.obj (.rodata.clk_WKUP_CLKSEL_parents)
                  43c19ec0    00000004                                                      : clocks.obj (.rodata.clk_data_CLK_32K_RC_SEL_div_in2)
                  43c19ec4    00000004                                                      : clocks.obj (.rodata.clk_data_K3_DPHY_RX_main_0_io_rx_cl_l_m)
                  43c19ec8    00000004                                                      : clocks.obj (.rodata.clk_data_K3_DPHY_RX_main_0_io_rx_cl_l_p)
                  43c19ecc    00000004                                                      : clocks.obj (.rodata.clk_data_K3_DPHY_RX_main_0_ppi_rx_byte_clk)
                  43c19ed0    00000004                                                      : clocks.obj (.rodata.clk_data_MAIN_OBSCLK0_MUX_SEL_div_in9)
                  43c19ed4    00000004                                                      : clocks.obj (.rodata.clk_data_MAIN_WWDTCLKn_SEL_out0_div_in3)
                  43c19ed8    00000004                                                      : clocks.obj (.rodata.clk_data_MAIN_WWDTCLKn_SEL_out1_div_in3)
                  43c19edc    00000004                                                      : clocks.obj (.rodata.clk_data_MAIN_WWDTCLKn_SEL_out2_div_in3)
                  43c19ee0    00000004                                                      : clocks.obj (.rodata.clk_data_MAIN_WWDTCLKn_SEL_out3_div_in3)
                  43c19ee4    00000004                                                      : clocks.obj (.rodata.clk_data_MAIN_WWDTCLKn_SEL_out4_div_in3)
                  43c19ee8    00000004                                                      : clocks.obj (.rodata.clk_data_MCU_OBSCLK_MUX_SEL_div_in5)
                  43c19eec    00000004                                                      : clocks.obj (.rodata.clk_data_MCU_TIMERCLKn_SEL_out0_div_in7)
                  43c19ef0    00000004                                                      : clocks.obj (.rodata.clk_data_MCU_TIMERCLKn_SEL_out1_div_in7)
                  43c19ef4    00000004                                                      : clocks.obj (.rodata.clk_data_MCU_TIMERCLKn_SEL_out2_div_in7)
                  43c19ef8    00000004                                                      : clocks.obj (.rodata.clk_data_MCU_TIMERCLKn_SEL_out3_div_in7)
                  43c19efc    00000004                                                      : clocks.obj (.rodata.clk_data_MCU_WWDTCLK_SEL_div_in3)
                  43c19f00    00000004                                                      : clocks.obj (.rodata.clk_data_RTC_CLK_SEL_div_in1)
                  43c19f04    00000004                                                      : clocks.obj (.rodata.clk_data_WKUP_TIMERCLKn_SEL_out0_div_in7)
                  43c19f08    00000004                                                      : clocks.obj (.rodata.clk_data_WKUP_TIMERCLKn_SEL_out1_div_in7)
                  43c19f0c    00000004                                                      : clocks.obj (.rodata.clk_data_WKUP_WWDTCLK_SEL_div_in3)
                  43c19f10    00000004                                                      : clocks.obj (.rodata.clk_data_board_0_AUDIO_EXT_REFCLK0_out)
                  43c19f14    00000004                                                      : clocks.obj (.rodata.clk_data_board_0_AUDIO_EXT_REFCLK1_out)
                  43c19f18    00000004                                                      : clocks.obj (.rodata.clk_data_board_0_CP_GEMAC_CPTS0_RFT_CLK_out)
                  43c19f1c    00000004                                                      : clocks.obj (.rodata.clk_data_board_0_DDR0_CK0_out)
                  43c19f20    00000004                                                      : clocks.obj (.rodata.clk_data_board_0_EXT_REFCLK1_out)
                  43c19f24    00000004                                                      : clocks.obj (.rodata.clk_data_board_0_GPMC0_CLKLB_out)
                  43c19f28    00000004                                                      : clocks.obj (.rodata.clk_data_board_0_I2C0_SCL_out)
                  43c19f2c    00000004                                                      : clocks.obj (.rodata.clk_data_board_0_I2C1_SCL_out)
                  43c19f30    00000004                                                      : clocks.obj (.rodata.clk_data_board_0_I2C2_SCL_out)
                  43c19f34    00000004                                                      : clocks.obj (.rodata.clk_data_board_0_I2C3_SCL_out)
                  43c19f38    00000004                                                      : clocks.obj (.rodata.clk_data_board_0_MCASP0_ACLKR_out)
                  43c19f3c    00000004                                                      : clocks.obj (.rodata.clk_data_board_0_MCASP0_ACLKX_out)
                  43c19f40    00000004                                                      : clocks.obj (.rodata.clk_data_board_0_MCASP1_ACLKR_out)
                  43c19f44    00000004                                                      : clocks.obj (.rodata.clk_data_board_0_MCASP1_ACLKX_out)
                  43c19f48    00000004                                                      : clocks.obj (.rodata.clk_data_board_0_MCASP2_ACLKR_out)
                  43c19f4c    00000004                                                      : clocks.obj (.rodata.clk_data_board_0_MCASP2_ACLKX_out)
                  43c19f50    00000004                                                      : clocks.obj (.rodata.clk_data_board_0_MCU_EXT_REFCLK0_out)
                  43c19f54    00000004                                                      : clocks.obj (.rodata.clk_data_board_0_MCU_I2C0_SCL_out)
                  43c19f58    00000004                                                      : clocks.obj (.rodata.clk_data_board_0_MCU_SPI0_CLK_out)
                  43c19f5c    00000004                                                      : clocks.obj (.rodata.clk_data_board_0_MCU_SPI1_CLK_out)
                  43c19f60    00000004                                                      : clocks.obj (.rodata.clk_data_board_0_MMC0_CLKLB_out)
                  43c19f64    00000004                                                      : clocks.obj (.rodata.clk_data_board_0_MMC0_CLK_out)
                  43c19f68    00000004                                                      : clocks.obj (.rodata.clk_data_board_0_MMC1_CLKLB_out)
                  43c19f6c    00000004                                                      : clocks.obj (.rodata.clk_data_board_0_MMC1_CLK_out)
                  43c19f70    00000004                                                      : clocks.obj (.rodata.clk_data_board_0_MMC2_CLKLB_out)
                  43c19f74    00000004                                                      : clocks.obj (.rodata.clk_data_board_0_MMC2_CLK_out)
                  43c19f78    00000004                                                      : clocks.obj (.rodata.clk_data_board_0_OSPI0_DQS_out)
                  43c19f7c    00000004                                                      : clocks.obj (.rodata.clk_data_board_0_OSPI0_LBCLKO_out)
                  43c19f80    00000004                                                      : clocks.obj (.rodata.clk_data_board_0_RGMII1_RXC_out)
                  43c19f84    00000004                                                      : clocks.obj (.rodata.clk_data_board_0_RGMII1_TXC_out)
                  43c19f88    00000004                                                      : clocks.obj (.rodata.clk_data_board_0_RGMII2_RXC_out)
                  43c19f8c    00000004                                                      : clocks.obj (.rodata.clk_data_board_0_RGMII2_TXC_out)
                  43c19f90    00000004                                                      : clocks.obj (.rodata.clk_data_board_0_RMII1_REF_CLK_out)
                  43c19f94    00000004                                                      : clocks.obj (.rodata.clk_data_board_0_RMII2_REF_CLK_out)
                  43c19f98    00000004                                                      : clocks.obj (.rodata.clk_data_board_0_SPI0_CLK_out)
                  43c19f9c    00000004                                                      : clocks.obj (.rodata.clk_data_board_0_SPI1_CLK_out)
                  43c19fa0    00000004                                                      : clocks.obj (.rodata.clk_data_board_0_SPI2_CLK_out)
                  43c19fa4    00000004                                                      : clocks.obj (.rodata.clk_data_board_0_TCK_out)
                  43c19fa8    00000004                                                      : clocks.obj (.rodata.clk_data_board_0_VOUT0_EXTPCLKIN_out)
                  43c19fac    00000004                                                      : clocks.obj (.rodata.clk_data_cpsw_3guss_main_0_cpts_genf0)
                  43c19fb0    00000004                                                      : clocks.obj (.rodata.clk_data_cpsw_3guss_main_0_cpts_genf1)
                  43c19fb4    00000004                                                      : clocks.obj (.rodata.clk_data_cpsw_3guss_main_0_mdio_mdclk_o)
                  43c19fb8    00000004                                                      : clocks.obj (.rodata.clk_data_cpsw_3guss_main_0_rgmii1_txc_o)
                  43c19fbc    00000004                                                      : clocks.obj (.rodata.clk_data_cpsw_3guss_main_0_rgmii2_txc_o)
                  43c19fc0    00000004                                                      : clocks.obj (.rodata.clk_data_debugss_k3_wrap_cv0_main_0_cstpiu_traceclk)
                  43c19fc4    00000004                                                      : clocks.obj (.rodata.clk_data_dmtimer_dmc1ms_main_0_timer_pwm)
                  43c19fc8    00000004                                                      : clocks.obj (.rodata.clk_data_dmtimer_dmc1ms_main_1_timer_pwm)
                  43c19fcc    00000004                                                      : clocks.obj (.rodata.clk_data_dmtimer_dmc1ms_main_2_timer_pwm)
                  43c19fd0    00000004                                                      : clocks.obj (.rodata.clk_data_dmtimer_dmc1ms_main_3_timer_pwm)
                  43c19fd4    00000004                                                      : clocks.obj (.rodata.clk_data_dmtimer_dmc1ms_main_4_timer_pwm)
                  43c19fd8    00000004                                                      : clocks.obj (.rodata.clk_data_dmtimer_dmc1ms_main_5_timer_pwm)
                  43c19fdc    00000004                                                      : clocks.obj (.rodata.clk_data_dmtimer_dmc1ms_main_6_timer_pwm)
                  43c19fe0    00000004                                                      : clocks.obj (.rodata.clk_data_dmtimer_dmc1ms_main_7_timer_pwm)
                  43c19fe4    00000004                                                      : clocks.obj (.rodata.clk_data_dmtimer_dmc1ms_mcu_0_timer_pwm)
                  43c19fe8    00000004                                                      : clocks.obj (.rodata.clk_data_dmtimer_dmc1ms_mcu_1_timer_pwm)
                  43c19fec    00000004                                                      : clocks.obj (.rodata.clk_data_dmtimer_dmc1ms_mcu_2_timer_pwm)
                  43c19ff0    00000004                                                      : clocks.obj (.rodata.clk_data_dmtimer_dmc1ms_mcu_3_timer_pwm)
                  43c19ff4    00000004                                                      : clocks.obj (.rodata.clk_data_emmcsd4ss_main_0_emmcsdss_io_clk_o)
                  43c19ff8    00000004                                                      : clocks.obj (.rodata.clk_data_emmcsd4ss_main_1_emmcsdss_io_clk_o)
                  43c19ffc    00000004                                                      : clocks.obj (.rodata.clk_data_emmcsd8ss_main_0_emmcsdss_io_clk_o)
                  43c1a000    00000004                                                      : clocks.obj (.rodata.clk_data_fss_ul_main_0_ospi_0_ospi_oclk_clk)
                  43c1a004    00000004                                                      : clocks.obj (.rodata.clk_data_gpmc_main_0_po_gpmc_dev_clk)
                  43c1a008    00000004                                                      : clocks.obj (.rodata.clk_data_k3_dss_ul_main_0_dpi_1_out_clk)
                  43c1a00c    00000004                                                      : clocks.obj (.rodata.clk_data_mcasp_main_0_mcasp_aclkr_pout)
                  43c1a010    00000004                                                      : clocks.obj (.rodata.clk_data_mcasp_main_0_mcasp_aclkx_pout)
                  43c1a014    00000004                                                      : clocks.obj (.rodata.clk_data_mcasp_main_0_mcasp_afsr_pout)
                  43c1a018    00000004                                                      : clocks.obj (.rodata.clk_data_mcasp_main_0_mcasp_afsx_pout)
                  43c1a01c    00000004                                                      : clocks.obj (.rodata.clk_data_mcasp_main_0_mcasp_ahclkr_pout)
                  43c1a020    00000004                                                      : clocks.obj (.rodata.clk_data_mcasp_main_0_mcasp_ahclkx_pout)
                  43c1a024    00000004                                                      : clocks.obj (.rodata.clk_data_mcasp_main_1_mcasp_aclkr_pout)
                  43c1a028    00000004                                                      : clocks.obj (.rodata.clk_data_mcasp_main_1_mcasp_aclkx_pout)
                  43c1a02c    00000004                                                      : clocks.obj (.rodata.clk_data_mcasp_main_1_mcasp_afsr_pout)
                  43c1a030    00000004                                                      : clocks.obj (.rodata.clk_data_mcasp_main_1_mcasp_afsx_pout)
                  43c1a034    00000004                                                      : clocks.obj (.rodata.clk_data_mcasp_main_1_mcasp_ahclkr_pout)
                  43c1a038    00000004                                                      : clocks.obj (.rodata.clk_data_mcasp_main_1_mcasp_ahclkx_pout)
                  43c1a03c    00000004                                                      : clocks.obj (.rodata.clk_data_mcasp_main_2_mcasp_aclkr_pout)
                  43c1a040    00000004                                                      : clocks.obj (.rodata.clk_data_mcasp_main_2_mcasp_aclkx_pout)
                  43c1a044    00000004                                                      : clocks.obj (.rodata.clk_data_mcasp_main_2_mcasp_afsr_pout)
                  43c1a048    00000004                                                      : clocks.obj (.rodata.clk_data_mcasp_main_2_mcasp_afsx_pout)
                  43c1a04c    00000004                                                      : clocks.obj (.rodata.clk_data_mcasp_main_2_mcasp_ahclkr_pout)
                  43c1a050    00000004                                                      : clocks.obj (.rodata.clk_data_mcasp_main_2_mcasp_ahclkx_pout)
                  43c1a054    00000004                                                      : clocks.obj (.rodata.clk_data_mshsi2c_main_0_porscl)
                  43c1a058    00000004                                                      : clocks.obj (.rodata.clk_data_mshsi2c_main_1_porscl)
                  43c1a05c    00000004                                                      : clocks.obj (.rodata.clk_data_mshsi2c_main_2_porscl)
                  43c1a060    00000004                                                      : clocks.obj (.rodata.clk_data_mshsi2c_main_3_porscl)
                  43c1a064    00000004                                                      : clocks.obj (.rodata.clk_data_mshsi2c_mcu_0_porscl)
                  43c1a068    00000004                                                      : clocks.obj (.rodata.clk_data_mshsi2c_wkup_0_porscl)
                  43c1a06c    00000004                                                      : clocks.obj (.rodata.clk_data_pllfracf2_ssmod_16fft_main_0_postdiv)
                  43c1a070    00000004                                                      : clocks.obj (.rodata.clk_data_pllfracf2_ssmod_16fft_main_1_postdiv)
                  43c1a074    00000004                                                      : clocks.obj (.rodata.clk_data_pllfracf2_ssmod_16fft_main_2_postdiv)
                  43c1a078    00000004                                                      : clocks.obj (.rodata.clk_data_sam62_a53_512kb_wrap_main_0_arm_corepack_0_a53_divh_clk4_obsclk_out_clk)
                  43c1a07c    00000004                                                      : clocks.obj (.rodata.clk_data_spi_main_0_io_clkspio_clk)
                  43c1a080    00000004                                                      : clocks.obj (.rodata.clk_data_spi_main_1_io_clkspio_clk)
                  43c1a084    00000004                                                      : clocks.obj (.rodata.clk_data_spi_main_2_io_clkspio_clk)
                  43c1a088    00000004                                                      : clocks.obj (.rodata.clk_data_spi_mcu_0_io_clkspio_clk)
                  43c1a08c    00000004                                                      : clocks.obj (.rodata.clk_data_spi_mcu_1_io_clkspio_clk)
                  43c1a090    00000004                                                      : clocks.obj (.rodata.clk_sam62_pll_ctrl_wrap_main_0_parents)
                  43c1a094    00000004                                                      : clocks.obj (.rodata.clk_sam62_pll_ctrl_wrap_mcu_0_parents)
                  43c1a098    00000004                                                      : resource.obj (.rodata.cst4)
                  43c1a09c    00000004                                                      : irq_cfg.obj (.rodata.evt_rt_srcs)
                  43c1a0a0    00000004                                                      : irq_cfg.obj (.rodata.evt_rt_srcs_count)
                  43c1a0a4    00000004                                                      : clocks.obj (.rodata.pllfracf2_ssmod_16fft_main_0_entries)
                  43c1a0a8    00000004                                                      : clocks.obj (.rodata.pllfracf2_ssmod_16fft_main_12_entries)
                  43c1a0ac    00000004                                                      : clocks.obj (.rodata.pllfracf2_ssmod_16fft_main_15_entries)
                  43c1a0b0    00000004                                                      : clocks.obj (.rodata.pllfracf2_ssmod_16fft_main_16_entries)
                  43c1a0b4    00000004                                                      : clocks.obj (.rodata.pllfracf2_ssmod_16fft_main_17_entries)
                  43c1a0b8    00000004                                                      : clocks.obj (.rodata.pllfracf2_ssmod_16fft_main_1_entries)
                  43c1a0bc    00000004                                                      : clocks.obj (.rodata.pllfracf2_ssmod_16fft_main_8_entries)
                  43c1a0c0    00000004                                                      : clocks.obj (.rodata.pllfracf2_ssmod_16fft_mcu_0_entries)
                  43c1a0c4    00000004                                                      : ra_cfg.obj (.rodata.ra_inst_count)
                  43c1a0c8    00000004                                                      : clocks.obj (.rodata.soc_clock_count)
                  43c1a0cc    00000004                                                      : devices.obj (.rodata.soc_devgroup_count)
                  43c1a0d0    00000004                                                      : devices.obj (.rodata.soc_device_count)
                  43c1a0d4    00000004                                                      : dmsc.obj (.rodata.str1.1)
                  43c1a0d8    00000004                                                      : udmap_cfg.obj (.rodata.udmap_inst_count)
                  43c1a0dc    00000004     --HOLE-- [fill = 0]

.boardcfg_data 
*          0    43c1a100    00000800     
                  43c1a100    00000782     sciclient_direct_sbl.am62x.r5f.ti-arm-clang.release.lib : sciclient_boardcfg.obj (.boardcfg_data)
                  43c1a882    0000007e     --HOLE-- [fill = 0]

.sysmem    0    43c1a900    00008000     UNINITIALIZED
                  43c1a900    00000010     libc.a : memory.c.obj (.sysmem)
                  43c1a910    00007ff0     --HOLE--

.stack     0    43c22900    00004000     UNINITIALIZED
                  43c22900    00000004     nortos.am62x.r5f.ti-arm-clang.release.lib : boot_armv7r_asm.obj (.stack)
                  43c22904    00003ffc     --HOLE--

.bss       0    43c26900    00002950     UNINITIALIZED
                  43c26900    00001008     (.common:gHwiCtrl)
                  43c27908    0000050c     rm_pm_hal_sbl.am62x.r5f.ti-arm-clang.release.lib : devices.obj (.bss.devgroup.MAIN)
                  43c27e14    00000428     sciclient_direct_sbl.am62x.r5f.ti-arm-clang.release.lib : sciclient.obj (.bss.gSciclient_semObjects)
                  43c2823c    00000404     (.common:soc_clocks)
                  43c28640    00000390     (.common:soc_devices)
                  43c289d0    00000284     ti_drivers_config.obj (.bss.gUartObjects)
                  43c28c54    000001a4     (.common:soc_clock_values)
                  43c28df8    00000120     libsysbm.a : trgmsg.c.obj (.bss:_CIOBUF_)
                  43c28f18    00000114     rm_pm_hal_sbl.am62x.r5f.ti-arm-clang.release.lib : devices.obj (.bss.devgroup.MCU_WAKEUP)
                  43c2902c    000000b8                                                      : ia_cfg.obj (.bss.vint_usage_count_DMASS0_INTAGGR_0)
                  43c290e4    000000a0     (.common:__TI_tmpnams)
                  43c29184    00000040     (.common:_freertosresetvectors)
                  43c291c4    00000004     drivers.am62x.r5f.ti-arm-clang.release.lib : bootloader_xmodem.obj (.bss.gUartHandle)
                  43c291c8    00000038     (.common:gClockCtrl)
                  43c29200    00000014                                                : ddr.obj (.bss.gLpddrPd)
                  43c29214    00000010                                                : ddr.obj (.bss.gLpddrCfg)
                  43c29224    00000008     (.common:parmbuf)
                  43c2922c    00000004     nortos.am62x.r5f.ti-arm-clang.release.lib : HwiP_armv7r_vim.obj (.bss.gdummy)
                  43c29230    00000004     rm_pm_hal_sbl.am62x.r5f.ti-arm-clang.release.lib : rm_irq.obj (.bss.oes_src_map)
                  43c29234    00000004                                                      : psc.obj (.bss.psc_devs)
                  43c29238    00000004                                                      : sleep.obj (.bss.sleep_modes)
                  43c2923c    00000004     libc.a : memory.c.obj (.bss.sys_free)
                  43c29240    00000004     rm_pm_hal_sbl.am62x.r5f.ti-arm-clang.release.lib : sys-reset.obj (.bss.sys_reset_handler)
                  43c29244    00000004     (.common:gUartHandle)
                  43c29248    00000001                                                      : dmsc.obj (.bss.am62x_sleep_block)
                  43c29249    00000001                                                      : devices.obj (.bss.devgroup.TIFS_INTERNAL)
                  43c2924a    00000006     --HOLE--

.irqstack 
*          0    43c29250    00001000     UNINITIALIZED
                  43c29250    00001000     --HOLE--

.fiqstack 
*          0    43c2a250    00000100     UNINITIALIZED
                  43c2a250    00000100     --HOLE--

.svcstack 
*          0    43c2a350    00000100     UNINITIALIZED
                  43c2a350    00000100     --HOLE--

.abortstack 
*          0    43c2a450    00000100     UNINITIALIZED
                  43c2a450    00000100     --HOLE--

.undefinedstack 
*          0    43c2a550    00000100     UNINITIALIZED
                  43c2a550    00000100     --HOLE--

.bss.filebuf 
*          0    80000000    00800000     NOLOAD SECTION
                  80000000    00800000     main.obj (.bss.filebuf)

__llvm_prf_cnts 
*          0    43c00100    00000000     UNINITIALIZED

__llvm_prf_bits 
*          0    43c00100    00000000     UNINITIALIZED

MODULE SUMMARY

       Module                                   code    ro data   rw data
       ------                                   ----    -------   -------
    obj/release/
       main.obj                                 298     41        8388608
       ti_drivers_config.obj                    80      0         8410   
       ti_dpl_config.obj                        78      0         240    
       ti_drivers_open_close.obj                104     70        92     
       ti_power_clock_config.obj                164     0         40     
       ti_pinmux_config.obj                     34      0         32     
       ti_board_open_close.obj                  4       0         0      
    +--+----------------------------------------+-------+---------+---------+
       Total:                                   762     111       8397422
                                                                         
    /home/gtbldadm/nightlybuilds/repo_manifests/scripts/jenkins/mcu_plus_sdk_am62x_08_06_00_18/source/drivers/device_manager/rm_pm_hal/sbl/lib/rm_pm_hal_sbl.am62x.r5f.ti-arm-clang.release.lib
       devices.obj                              0       6920      2481   
       clocks.obj                               0       7636      1448   
       rm_udmap.obj                             6808    156       0      
       psc.obj                                  4348    32        4      
       clk_pll_16fft.obj                        3022    290       0      
       boardcfg-user.obj                        314     0         2812   
       rm_ra.obj                                2666    20        0      
       pll.obj                                  2606    0         0      
       device_clk.obj                           2282    0         0      
       clk_div.obj                              1766    108       0      
       rm_irq.obj                               1786    0         4      
       rm_ia.obj                                1624    0         0      
       clk.obj                                  1616    0         0      
       rm_core.obj                              962     0         493    
       device_psc.obj                           1326    0         0      
       clock.obj                                1244    0         0      
       rm_ir.obj                                1028    0         0      
       udmap_cfg.obj                            0       446       264    
       device.obj                               636     0         8      
       device_process.obj                       612     0         0      
       clk_mux.obj                              558     32        0      
       ra_cfg.obj                               0       252       300    
       ia_cfg.obj                               0       160       284    
       device_pm.obj                            326     0         8      
       host_idx_mapping.obj                     0       255       0      
       map.obj                                  250     0         0      
       device_prepare.obj                       200     0         0      
       init.obj                                 180     12        0      
       div64.obj                                182     0         0      
       ir_cfg.obj                               0       64        112    
       mmr_lock.obj                             160     0         0      
       clk_dev.obj                              124     24        0      
       dmsc.obj                                 114     20        1      
       clk_pllctrl.obj                          102     32        0      
       resource.obj                             130     4         0      
       trace.obj                                80      8         16     
       clk_soc_hfosc0.obj                       40      48        0      
       itoa.obj                                 88      0         0      
       clk_fixed.obj                            52      24        0      
       fw_caps.obj                              40      24        0      
       ia_pe_conf.obj                           0       54        0      
       trace-uart.obj                           48      5         0      
       clk_soc_lfosc0.obj                       28      24        0      
       rm.obj                                   52      0         0      
       irq_cfg.obj                              0       40        0      
       osal_glue.obj                            36      0         0      
       sys-reset.obj                            32      0         4      
       sleep.obj                                28      0         4      
       core.obj                                 30      0         0      
       notifier.obj                             26      0         0      
       ioremap.obj                              2       0         0      
    +--+----------------------------------------+-------+---------+---------+
       Total:                                   37554   16690     8243   
                                                                         
    /home/gtbldadm/nightlybuilds/repo_manifests/scripts/jenkins/mcu_plus_sdk_am62x_08_06_00_18/source/drivers/device_manager/sciclient_direct/sbl/lib/sciclient_direct_sbl.am62x.r5f.ti-arm-clang.release.lib
       sciclient.obj                            2096    0         1232   
       sciclient_boardcfg.obj                   340     1960      0      
       sciclient_pm.obj                         1452    0         0      
       sciclient_direct.obj                     1428    8         0      
       uart_print.obj                           524     30        0      
       sciclient_direct_wrapper.obj             164     240       96     
       sciclient_secureproxy.obj                292     0         0      
       sciclient_procboot.obj                   194     0         0      
       sciclient_secureProxyCfg.obj             0       0         32     
       sciclient_rom.obj                        0       0         4      
    +--+----------------------------------------+-------+---------+---------+
       Total:                                   6490    2238      1364   
                                                                         
    /home/gtbldadm/nightlybuilds/repo_manifests/scripts/jenkins/mcu_plus_sdk_am62x_08_06_00_18/source/drivers/lib/drivers.am62x.r5f.ti-arm-clang.release.lib
       uart_v0.obj                              4332    309       156    
       bootloader_soc.obj                       588     1188      388    
       bootloader.obj                           1426    387       0      
       ddr.obj                                  798     418       36     
       xmodem.obj                               1022    0         0      
       lpddr4_16bit.obj                         614     306       0      
       ddr_soc.obj                              562     0         0      
       crc16.obj                                44      512       0      
       soc.obj                                  544     0         0      
       lpddr4.obj                               494     0         0      
       uart_dma.obj                             280     75        0      
       bootloader_xmodem.obj                    224     0         4      
       sciclient_fmwSecureProxyMap.obj          0       220       0      
       pinmux.obj                               128     0         0      
       bootloader_mem.obj                       78      0         20     
       csl_sec_proxy.obj                        10      0         0      
    +--+----------------------------------------+-------+---------+---------+
       Total:                                   11144   3415      604    
                                                                         
    /home/gtbldadm/nightlybuilds/repo_manifests/scripts/jenkins/mcu_plus_sdk_am62x_08_06_00_18/source/kernel/nortos/lib/nortos.am62x.r5f.ti-arm-clang.release.lib
       HwiP_armv7r_vim.obj                      1106    0         4108   
       printf.obj                               3952    98        0      
       CacheP_armv7r_asm.obj                    848     0         0      
       ClockP_nortos.obj                        656     90        56     
       TimerP.obj                               516     259       0      
       HwiP_armv7r_handlers_nortos.obj          574     0         0      
       MpuP_armv7r.obj                          436     0         0      
       SemaphoreP_nortos.obj                    328     107       0      
       ClockP_nortos_r5.obj                     260     172       0      
       CacheP_armv7r.obj                        262     0         8      
       boot_armv7r_asm.obj                      252     0         0      
       DebugP_log.obj                           154     45        4      
       HwiP_armv7r_asm.obj                      152     0         0      
       MpuP_armv7r_asm.obj                      128     0         0      
       HwiP_armv7r_handlers_nortos_asm.obj      120     0         0      
       AddrTranslateP.obj                       104     0         12     
       HwiP_armv7r_vectors_nortos_asm.obj       64      0         0      
       HwiP_armv7r_vectors_nortos_sbl_asm.obj   64      0         0      
       DebugP_nortos.obj                        56      0         0      
       boot_armv7r.obj                          28      0         0      
       TaskP_nortos.obj                         2       0         0      
    +--+----------------------------------------+-------+---------+---------+
       Total:                                   10062   771       4188   
                                                                         
    /home/gtbldadm/ti/ccs1220/ccs/tools/compiler/ti-cgt-armllvm_2.1.2.LTS/lib/armv7r-ti-none-eabihf/c/libc.a
       memory.c.obj                             1172    0         5      
       defs.c.obj                               0       0         404    
       setvbuf.c.obj                            324     0         0      
       getdevice.c.obj                          308     0         0      
       fputc.c.obj                              256     0         0      
       fseek.c.obj                              184     0         0      
       fclose.c.obj                             180     0         0      
       _io_perm.c.obj                           156     0         0      
       fflush.c.obj                             136     0         0      
       exit.c.obj                               92      0         8      
       fopen.c.obj                              88      0         0      
       autoinit.c.obj                           80      0         0      
       _lock.c.obj                              4       0         8      
    +--+----------------------------------------+-------+---------+---------+
       Total:                                   2980    0         425    
                                                                         
    /home/gtbldadm/ti/ccs1220/ccs/tools/compiler/ti-cgt-armllvm_2.1.2.LTS/lib/armv7r-ti-none-eabihf/c/libsysbm.a
       trgmsg.c.obj                             176     0         288    
       hostrename.c.obj                         208     0         0      
       host_device.c.obj                        0       0         200    
       hostopen.c.obj                           148     0         8      
       hostlseek.c.obj                          152     0         0      
       close.c.obj                              140     0         0      
       hostread.c.obj                           132     0         0      
       hostwrite.c.obj                          132     0         0      
       hostunlink.c.obj                         108     0         0      
       hostclose.c.obj                          96      0         0      
       unlink.c.obj                             72      0         0      
       lseek.c.obj                              52      0         0      
       write.c.obj                              52      0         0      
       memcpy32.S.obj                           28      0         0      
       memset32.S.obj                           24      0         0      
       remove.c.obj                             4       0         0      
    +--+----------------------------------------+-------+---------+---------+
       Total:                                   1524    0         496    
                                                                         
    /home/gtbldadm/ti/ccs1220/ccs/tools/compiler/ti-cgt-armllvm_2.1.2.LTS/lib/clang/14.0.6/lib/armv7r-ti-none-eabihf/libclang_rt.builtins.a
       udivmoddi4.S.obj                         280     0         0      
       ashldi3.S.obj                            40      0         0      
       lshrdi3.S.obj                            40      0         0      
       aeabi_uldivmod.S.obj                     36      0         0      
       aeabi_memset.S.obj                       28      0         0      
       aeabi_div0.c.obj                         4       0         0      
       aeabi_memcpy.S.obj                       4       0         0      
    +--+----------------------------------------+-------+---------+---------+
       Total:                                   432     0         0      
                                                                         
       Heap:                                    0       0         32768  
       Stack:                                   0       0         16384  
    +--+----------------------------------------+-------+---------+---------+
       Grand Total:                             70948   23225     8461894

VENEERS

callee name               veneer name
   callee addr  veneer addr  call addr  call info
--------------  -----------  ---------  ----------------
putchar                   $Ven$TA$L$PI$$putchar
   43c10720     43c0cf48     43c108c0   ti_dpl_config.obj (.text.putchar_)
HwiP_enable               $Ven$TA$L$PI$$HwiP_enable
   43c12798     43c0cfb4     43c0ef76   ti_dpl_config.obj (.text.Dpl_init)
HwiP_restore              $Ven$TA$L$PI$$HwiP_restore
   43c127b8     43c0de14     43c0d9b0   rm_pm_hal_sbl.am62x.r5f.ti-arm-clang.release.lib : mmr_lock.obj (.text.mmr_unlock_all)
                             43c0ea1c   nortos.am62x.r5f.ti-arm-clang.release.lib : ClockP_nortos.obj (.text.ClockP_stop)
                             43c0ef36                                             : ClockP_nortos.obj (.text.ClockP_destruct)
                             43c0f240                                             : ClockP_nortos.obj (.text.ClockP_start)
                             43c0f59e                                             : SemaphoreP_nortos.obj (.text.SemaphoreP_post)
HwiP_enableFIQ            $Ven$TA$L$PI$$HwiP_enableFIQ
   43c127a8     43c124b4     43c1249c   nortos.am62x.r5f.ti-arm-clang.release.lib : HwiP_armv7r_vim.obj (.text.hwi)
CacheP_invL1d             $Ven$TA$L$PI$$CacheP_invL1d
   43c12860     43c12c38     43c12c32   nortos.am62x.r5f.ti-arm-clang.release.lib : CacheP_armv7r.obj (.text.cache)
HwiP_restore              $Ven$TA$L$PI$$HwiP_restore
   43c127b8     43c12c40     43c12be6   nortos.am62x.r5f.ti-arm-clang.release.lib : CacheP_armv7r.obj (.text.cache)
CacheP_enableL1p          $Ven$TA$L$PI$$CacheP_enableL1p
   43c12848     43c12c48     43c12ba2   nortos.am62x.r5f.ti-arm-clang.release.lib : CacheP_armv7r.obj (.text.cache)
                             43c12c0c                                             : CacheP_armv7r.obj (.text.cache)
MpuP_isEnableAsm          $Ven$TA$L$PI$$MpuP_isEnableAsm
   43c12e54     43c12e7c     43c12d90   nortos.am62x.r5f.ti-arm-clang.release.lib : MpuP_armv7r.obj (.text.mpu)
HwiP_restore              $Ven$TA$L$PI$$HwiP_restore
   43c127b8     43c12e84     43c12d4a   nortos.am62x.r5f.ti-arm-clang.release.lib : MpuP_armv7r.obj (.text.mpu)
                             43c12d7c                                             : MpuP_armv7r.obj (.text.mpu)

[9 trampolines]
[15 trampoline calls]


GLOBAL SYMBOLS: SORTED ALPHABETICALLY BY Name 

address   name                                 
-------   ----                                 
43c0ce11  AddrTranslateP_getLocalAddr          
43c0f701  App_loadSelfcoreImage                
43c107f1  Board_driversOpen                    
43c0f471  Bootloader_BootImageInfo_init        
43c10261  Bootloader_JumpSelfCpu               
43c10761  Bootloader_Params_init               
43c10691  Bootloader_close                     
43c0c9c1  Bootloader_findSeq                   
43c0b0e1  Bootloader_getMsgLen                 
43c0f001  Bootloader_getX509CertLen            
43c0a7b1  Bootloader_loadSelfCpu               
43c0ec21  Bootloader_open                      
43c09271  Bootloader_parseMultiCoreAppImage    
43c089c1  Bootloader_rprcImageLoad             
43c10461  Bootloader_socAuthImage              
43c10281  Bootloader_socCpuGetClkDefault       
43c0cf51  Bootloader_socCpuGetClock            
43c0c061  Bootloader_socCpuSetClock            
43c10741  Bootloader_socCpuSetEntryPoint       
43c10081  Bootloader_socGetCoreName            
43c10791  Bootloader_socGetSBLMem              
43c102a1  Bootloader_socIsAuthRequired         
43c0cfc1  Bootloader_socMemInitCpu             
43c100a1  Bootloader_socRprcToCslCoreId        
43c10771  Bootloader_socSelfCPUjump            
43c0e0a1  Bootloader_socTranslateSectionAddr   
43c10801  Bootloader_socWaitForFWBoot          
43c06121  Bootloader_verifyMulticoreImage      
43c0f4b1  Bootloader_xmodemReceive             
43c0f4f1  Bootloader_xmodemTransmit            
43c0cb08  C$$EXIT                              
43c0d900  C$$IO$$                              
43c10811  CPS_UncachedRead32                   
43c10821  CPS_UncachedWrite32                  
43c107a1  CSL_secProxyGetDataAddr              
43c12b00  CacheP_configForceWrThru             
43c12bb1  CacheP_disable                       
43c127f0  CacheP_disableL1d                    
43c12818  CacheP_disableL1p                    
43c12bf1  CacheP_enable                        
43c12830  CacheP_enableL1d                     
43c12848  CacheP_enableL1p                     
43c12af4  CacheP_getCacheLevelInfo             
43c12abc  CacheP_getEnabled                    
43c12b31  CacheP_init                          
43c12c11  CacheP_inv                           
43c12860  CacheP_invL1d                        
43c128d4  CacheP_invL1dAll                     
43c12898  CacheP_invL1p                        
43c128dc  CacheP_invL1pAll                     
43c12b20  CacheP_setDLFO                       
43c128e4  CacheP_wb                            
43c1295c  CacheP_wbAll                         
43c12920  CacheP_wbInv                         
43c12a04  CacheP_wbInvAll                      
43c12a1c  CacheP_wbInvAllAsm                   
43c107b1  ClockP_Params_init                   
43c0de71  ClockP_construct                     
43c0ef01  ClockP_destruct                      
43c10781  ClockP_getTicks                      
43c0e1e1  ClockP_getTimeUsec                   
43c10831  ClockP_getTimerCount                 
43c07dd1  ClockP_init                          
43c107c1  ClockP_isActive                      
43c0f211  ClockP_start                         
43c0e9e1  ClockP_stop                          
43c106a1  ClockP_ticksToUsec                   
43c10841  ClockP_timerClearOverflowInt         
43c0ca31  ClockP_timerTickIsr                  
43c0f531  ClockP_usleep                        
43c142a8  DDRSS_ctlReg                         
43c1529e  DDRSS_ctlRegNum                      
43c14944  DDRSS_phyIndepReg                    
43c155ec  DDRSS_phyIndepRegNum                 
43c13abc  DDRSS_phyReg                         
43c14ea8  DDRSS_phyRegNum                      
43c0ff81  DDR_ResetDDR_PLL                     
43c03431  DDR_init                             
43c0c801  DDR_programHSDIV                     
43c05f81  DDR_programPLL                       
43c108d1  DDR_socEnableVttRegulator            
43c100c1  DebugP_logZoneEnable                 
43c108e1  Dpl_deinit                           
43c0ef41  Dpl_init                             
43c10481  Drivers_close                        
43c10851  Drivers_open                         
43c0e231  Drivers_uartOpen                     
43c0d2e0  HOSTclose                            
43c0addc  HOSTlseek                            
43c0b174  HOSTopen                             
43c0b93c  HOSTread                             
43c0a850  HOSTrename                           
43c0ca9c  HOSTunlink                           
43c0b9c0  HOSTwrite                            
43c12181  HwiP_Params_init                     
43c12131  HwiP_clearInt                        
43c121a1  HwiP_construct                       
43c126d1  HwiP_data_abort_handler              
43c122f1  HwiP_destruct                        
43c12778  HwiP_disable                         
43c12788  HwiP_disableFIQ                      
43c12091  HwiP_disableInt                      
43c127d0  HwiP_disableVIC                      
43c12798  HwiP_enable                          
43c127a8  HwiP_enableFIQ                       
43c12061  HwiP_enableInt                       
43c127c0  HwiP_enableVIC                       
43c12551  HwiP_fiq_handler                     
43c127e0  HwiP_getCPSR                         
43c124a1  HwiP_inISR                           
43c123d1  HwiP_init                            
43c12700  HwiP_irq_handler                     
43c124c1  HwiP_irq_handler_c                   
43c12151  HwiP_post                            
43c126a1  HwiP_prefetch_abort_handler          
43c12611  HwiP_reserved_handler                
43c127b8  HwiP_restore                         
43c120d1  HwiP_restoreInt                      
43c12671  HwiP_svc_handler                     
43c12641  HwiP_undefined_handler               
43c078a1  LPDDR4_AckCtlInterrupt               
43c07431  LPDDR4_CheckCtlInterrupt             
43c0f251  LPDDR4_EnablePIInitiator             
43c104a1  LPDDR4_Init                          
43c0f291  LPDDR4_PollCtlIrq                    
43c106b1  LPDDR4_Probe                         
43c0e0f1  LPDDR4_ReadReg                       
43c0c871  LPDDR4_Start                         
43c0ea21  LPDDR4_WriteCtlConfig                
43c0e6e1  LPDDR4_WritePhyConfig                
43c0e531  LPDDR4_WritePhyIndepConfig           
43c0f761  Module_clockDisable                  
43c0f791  Module_clockEnable                   
43c0f191  Module_clockSetFrequency             
43c12c51  MpuP_RegionAttrs_init                
43c12d51  MpuP_disable                         
43c12e04  MpuP_disableAsm                      
43c12e1c  MpuP_disableBRAsm                    
43c12d11  MpuP_enable                          
43c12e2c  MpuP_enableAsm                       
43c12e44  MpuP_enableBRAsm                     
43c12da1  MpuP_init                            
43c12d91  MpuP_isEnable                        
43c12e54  MpuP_isEnableAsm                     
43c12c61  MpuP_setRegion                       
43c12e68  MpuP_setRegionAsm                    
43c0bce1  Pinmux_config                        
43c0ffb1  Pinmux_init                          
43c10881  PowerClock_deinit                    
43c10751  PowerClock_init                      
43c0fa31  SOC_controlModuleLockMMR             
43c0e4e1  SOC_controlModuleUnlockMMR           
43c0c8e1  SOC_moduleClockEnable                
43c06d21  SOC_moduleSetClockFrequency          
43c06805  Sciclient_ProcessPmMessage           
43c07bc5  Sciclient_ProcessRmMessage           
43c0e13f  Sciclient_abiCheck                   
43c09335  Sciclient_boardCfgParseHeader        
43c0ba45  Sciclient_boardCfgPm                 
43c0bac9  Sciclient_boardCfgRm                 
43c0c789  Sciclient_configPrmsInit             
43c0e27d  Sciclient_deinit                     
43c0d341  Sciclient_direct_init                
43c0f81d  Sciclient_flush                      
43c0e579  Sciclient_getCurrentContext          
43c0e2c9  Sciclient_getDefaultBoardCfgInfo     
43c056d1  Sciclient_init                       
43c0bb4d  Sciclient_pmGetModuleClkFreq         
43c0b831  Sciclient_pmGetModuleClkNumParent    
43c0b8b7  Sciclient_pmGetModuleClkParent       
43c0bc55  Sciclient_pmGetModuleState           
43c0c0df  Sciclient_pmModuleClkRequest         
43c0bbd1  Sciclient_pmModuleGetClkStatus       
43c097b5  Sciclient_pmQueryModuleClkFreq       
43c0a259  Sciclient_pmSetModuleClkFreq         
43c0c15d  Sciclient_pmSetModuleClkParent       
43c0dac7  Sciclient_pmSetModuleRst             
43c0d3a1  Sciclient_pmSetModuleState           
43c0d4c1  Sciclient_procBootAuthAndStart       
43c0d025  Sciclient_procBootSetSequenceCtrl    
43c100e1  Sciclient_query_fw_caps_handler      
43c102dd  Sciclient_readThread32               
43c1058d  Sciclient_readThreadCount            
43c0bde1  Sciclient_sendMessage                
43c05505  Sciclient_service                    
43c0dec1  Sciclient_serviceGetPayloadSize      
43c0ae75  Sciclient_serviceGetThreadIds        
43c0c62d  Sciclient_servicePrepareHeader       
43c03a09  Sciclient_serviceSecureProxy         
43c0d27d  Sciclient_setDebugConfig             
43c106c1  Sciclient_threadStatusReg            
43c105a1  Sciclient_verifyThread               
43c0e849  Sciclient_waitForBootNotification    
43c0fd39  Sciclient_waitThread                 
43c0ea61  SemaphoreP_constructBinary           
43c0ec61  SemaphoreP_constructMutex            
43c10901  SemaphoreP_destruct                  
43c0b041  SemaphoreP_pend                      
43c0f571  SemaphoreP_post                      
43c10101  System_deinit                        
43c0f5e1  System_init                          
43c1038c  TI_memcpy_small                      
43c10530  TI_memset_small                      
43c10911  TaskP_yield                          
43c10121  TimerP_Params_init                   
43c10671  TimerP_clearOverflowInt              
43c10891  TimerP_getCount                      
43c108a1  TimerP_getReloadCount                
43c058a1  TimerP_setup                         
43c107d1  TimerP_start                         
43c06951  UART_close                           
43c103d1  UART_deinit                          
43c0db21  UART_dmaClose                        
43c0da71  UART_dmaDisableChannel               
43c0ef81  UART_dmaOpen                         
43c09ee1  UART_flushTxFifo                     
43c0f7c1  UART_getHandle                       
43c0b211  UART_init                            
43c01af1  UART_open                            
43c066b9  UART_printf                          
43c03cd1  UART_read                            
43c103f1  UART_readInterruptDma                
43c04f11  UART_write                           
43c10411  UART_writeInterruptDma               
43c28df8  _CIOBUF_                             
43c0d581  _DebugP_assert                       
43c12f91  _DebugP_assertNoLog                  
43c0f041  _DebugP_logZone                      
43c2a550  __ABORT_STACK_END                    
00000100  __ABORT_STACK_SIZE                   
43c2a450  __ABORT_STACK_START                  
43c29250  __BSS_END                            
43c26900  __BSS_START                          
43c28df8  __CIOBUF_                            
43c2a350  __FIQ_STACK_END                      
00000100  __FIQ_STACK_SIZE                     
43c2a250  __FIQ_STACK_START                    
43c2a250  __IRQ_STACK_END                      
00001000  __IRQ_STACK_SIZE                     
43c29250  __IRQ_STACK_START                    
43c26900  __STACK_END                          
00004000  __STACK_SIZE                         
43c2a450  __SVC_STACK_END                      
00000100  __SVC_STACK_SIZE                     
43c2a350  __SVC_STACK_START                    
00008000  __SYSMEM_SIZE                        
UNDEFED   __TI_CINIT_Base                      
UNDEFED   __TI_CINIT_Limit                     
UNDEFED   __TI_Handler_Table_Base              
UNDEFED   __TI_Handler_Table_Limit             
43c0e050  __TI_auto_init_nobinit_nopinit       
43c0d804  __TI_cleanup                         
43c16448  __TI_cleanup_ptr                     
43c09c0c  __TI_closefile                       
43c0b720  __TI_doflush                         
43c1644c  __TI_dtors_ptr                       
43c162f4  __TI_ft_end                          
ffffffff  __TI_pprof_out_hndl                  
ffffffff  __TI_prof_data_size                  
ffffffff  __TI_prof_data_start                 
43c0d85c  __TI_readmsg                         
43c00000  __TI_static_base__                   
43c290e4  __TI_tmpnams                         
43c0d8b4  __TI_writemsg                        
43c0aad0  __TI_wrt_ok                          
43c2a650  __UNDEFINED_STACK_END                
00000100  __UNDEFINED_STACK_SIZE               
43c2a550  __UNDEFINED_STACK_START              
43c108b0  __aeabi_ldiv0                        
43c0fc50  __aeabi_llsl                         
43c0fc78  __aeabi_llsr                         
43c103b8  __aeabi_memclr                       
43c103b8  __aeabi_memclr4                      
43c103b8  __aeabi_memclr8                      
43c0ce0c  __aeabi_memcpy                       
43c0ce0c  __aeabi_memcpy4                      
43c0ce0c  __aeabi_memcpy8                      
43c103a8  __aeabi_memset                       
43c103a8  __aeabi_memset4                      
43c103a8  __aeabi_memset8                      
43c0ff54  __aeabi_uldivmod                     
43c0fc50  __ashldi3                            
ffffffff  __binit__                            
43c0fc78  __lshrdi3                            
43c12fb1  __mpu_init                           
43c22900  __stack                              
43c00100  __start___llvm_prf_bits              
43c00100  __start___llvm_prf_cnts              
43c00100  __stop___llvm_prf_bits               
43c00100  __stop___llvm_prf_cnts               
43c07788  __udivmoddi4                         
43c12eb4  _c_int00                             
43c12e90  _c_int00_sbl                         
43c16060  _device                              
43c29184  _freertosresetvectors                
43c15bb8  _ftable                              
43c0e731  _inbyte                              
43c1642c  _lock                                
43c04cfc  _nop                                 
43c0f1d1  _outbyte                             
43c1625c  _stream                              
43c1a900  _sys_memory                          
UNDEFED   _system_post_cinit                   
43c10301  _system_pre_init                     
43c16488  _unlock                              
43c00000  _vectors                             
43c00040  _vectors_sbl                         
43c0cb08  abort                                
43c05a60  aligned_alloc                        
ffffffff  binit                                
43c0fd5d  boardcfg_get_rm_devgrp               
43c105b5  boardcfg_get_rm_resasg               
43c104b9  boardcfg_get_rm_resasg_size          
43c0efbb  boardcfg_pm_receive_and_validate     
43c0a051  boardcfg_rm_receive_and_validate     
43c10549  clk_div_get_freq                     
43c0db75  clk_div_init                         
43c081b9  clk_div_notify_freq                  
43c0d089  clk_div_reg_get_div                  
43c0d5dd  clk_div_reg_go_get_div               
43c09cc1  clk_div_reg_go_set_div               
43c0be61  clk_div_reg_set_div                  
43c02e41  clk_div_set_freq                     
43c0f079  clk_drop_pwr_up_en                   
43c19074  clk_drv_div_fixed                    
43c19098  clk_drv_div_pll_16fft_hsdiv          
43c190bc  clk_drv_div_pll_16fft_postdiv        
43c190e0  clk_drv_div_reg                      
43c19104  clk_drv_div_reg_go                   
43c19218  clk_drv_fixed                        
43c19230  clk_drv_from_device                  
43c19168  clk_drv_mux_reg                      
43c19248  clk_drv_pll_16fft                    
43c19188  clk_drv_pllctrl_mux_reg_ro           
43c19260  clk_drv_soc_hfosc0                   
43c19278  clk_drv_soc_lfosc0                   
43c02799  clk_freq_change_allow                
43c02b29  clk_freq_change_block                
43c0ab6d  clk_generic_set_freq_parent          
43c0c4c5  clk_get                              
43c0f849  clk_get_div                          
43c0f641  clk_get_freq                         
43c0eaa1  clk_get_parent                       
43c0f671  clk_get_parent_freq                  
43c0e8d1  clk_get_state                        
43c06a99  clk_init                             
43c01ae7  clk_notify_children_freq             
43c0d401  clk_notify_freq                      
43c0c1dd  clk_notify_sibling_freq              
43c0e609  clk_put                              
43c08641  clk_set_freq                         
43c094b5  clk_set_parent                       
43c0f6a1  clk_set_state                        
43c0ffd3  clk_ssc_allow                        
43c10161  clk_ssc_block                        
43c0fb39  clk_value_get_freq                   
43c0f0e9  clk_value_set_freq                   
43c0b608  close                                
43c0f981  crc16_ccitt                          
43c10501  dev_get_clk                          
43c0e959  device_clk_disable                   
43c0e99b  device_clk_enable                    
43c0f121  device_clk_get_freq                  
43c105dd  device_clk_get_freq_change           
43c0d695  device_clk_get_hw_ready              
43c0a30d  device_clk_get_hw_ssc                
43c105f1  device_clk_get_input_term            
43c0ec9f  device_clk_get_num_parents           
43c07ac1  device_clk_get_parent                
43c10605  device_clk_get_ssc                   
43c10619  device_clk_get_sw_gated              
43c0cbe9  device_clk_init                      
43c106e1  device_clk_query_freq                
43c10575  device_clk_set_freq                  
43c0dbc9  device_clk_set_freq_change           
43c08721  device_clk_set_gated                 
43c0fff5  device_clk_set_input_term            
43c09025  device_clk_set_parent                
43c0dc1d  device_clk_set_ssc                   
43c0ed59  device_disable                       
43c0fdc9  device_prepare_exclusive             
43c01545  device_prepare_nonexclusive          
43c101e1  device_resource_mem                  
43c0f5a3  device_set_retention                 
43c0a5b9  device_set_state                     
43c0fded  device_suspend                       
43c04689  devices_init                         
43c0f2f9  devices_init_rw                      
43c0fe11  dmsc_init                            
43c1a09c  evt_rt_srcs                          
43c1a0a0  evt_rt_srcs_count                    
43c0dc70  exit                                 
43c0cc54  finddevice                           
43c082a4  fputc                                
43c05c18  free                                 
43c0a50c  fseek                                
43c09d74  fseeko                               
43c16430  gAddrTranslateConfig                 
43c15d98  gAddrTranslateInfo                   
43c16460  gBootloader0Args                     
43c16368  gBootloaderConfig                    
43c1648c  gBootloaderConfigNum                 
43c163e4  gBootloaderMemFxns                   
43c16468  gCacheConfig                         
43c16490  gCacheL1dCacheLineSize               
43c16494  gCacheL1pCacheLineSize               
43c16384  gClockConfig                         
43c291c8  gClockCtrl                           
43c15f1c  gCoreBootInfo                        
43c16498  gDebugLogZone                        
43c1649c  gHwiConfig                           
43c26900  gHwiCtrl                             
43c1643c  gMpuConfig                           
43c15e5c  gMpuRegionConfig                     
43c163f8  gResMemSection                       
43c18d9c  gSOC_r5fVectors                      
43c1614c  gSciclientHandle                     
43c18898  gSciclientMap                        
43c16328  gSciclientRomSecProxyCfg             
43c1a100  gSciclient_boardCfgLow               
43c1a880  gSciclient_boardCfgLow_pm            
43c1a180  gSciclient_boardCfgLow_rm            
43c1a700  gSciclient_boardCfgLow_sec           
43c16348  gSciclient_secProxyCfg               
43c1641c  gSocModules                          
43c163b4  gSocModulesClockFrequency            
43c16480  gUartConfig                          
43c164a0  gUartConfigNum                       
43c12fc0  gUartDmaConfig                       
43c164a4  gUartDmaConfigNum                    
43c29244  gUartHandle                          
43c16204  gUartParams                          
80000000  gUniflashFileBuf                     
43c19e50  gcSciclientDirectExtBootX509MagicWord
43c09575  get_clock_handler                    
43c0c2d5  get_clock_parent_handler             
43c0ccc1  get_dev_clk                          
43c0e651  get_dev_clk_data                     
43c0a3bd  get_device_handler                   
43c0d6f1  get_freq_handler                     
43c0c351  get_num_clock_parents_handler        
43c08dcc  getdevice                            
43c161a8  ia_inst                              
43c18efa  ia_soc_pe_init_list                  
43c01fdb  ioremap_internal                     
43c160d8  ir_inst                              
43c191a8  irq_global_event_types               
43c18042  irq_global_event_types_count         
43c0d90d  lib_itoa                             
43c05899  lpsc_module_get                      
43c0dcc5  lpsc_module_get_local_reset          
43c05f79  lpsc_module_get_module_reset         
43c0e361  lpsc_module_get_reset_iso            
43c0fa05  lpsc_module_get_state                
43c0fe35  lpsc_module_idx                      
43c089b9  lpsc_module_put                      
43c0b209  lpsc_module_ret_get                  
43c0b3c9  lpsc_module_ret_put                  
43c0b339  lpsc_module_set_local_reset          
43c0b7a9  lpsc_module_set_module_reset         
43c0cd2d  lpsc_module_set_reset_iso            
43c08801  lpsc_module_wait                     
43c0f360  lseek                                
43c07ed1  main                                 
43c04ad4  malloc                               
43c09aa1  map_add                              
43c05a60  memalign                             
43c041e3  mmr_lock_all                         
43c0ee0d  mmr_unlock                           
43c0d965  mmr_unlock_all                       
43c1042b  notifier_call                        
43c164a8  operatingMode                        
43c0fe59  osal_delay                           
43c164ac  pSciclient_secProxyCfg               
43c29224  parmbuf                              
43c00101  pll_calc                             
43c0d9bd  pll_init                             
43c10701  pm_devgroup_is_enabled               
43c10711  pm_devgroup_set_enabled              
43c09b57  pm_div64                             
43c09e29  pm_init                              
43c0c53d  psc_drop_pwr_up_ref                  
43c19b30  psc_drv                              
43c0f395  psc_lookup                           
43c0ee49  psc_lookup_lpsc                      
43c0f3c9  psc_lookup_pd                        
43c0855d  psc_pd_get                           
43c08d01  psc_pd_put                           
43c0aca5  psc_pd_wait                          
43c10720  putchar                              
43c108c1  putchar_                             
43c090e9  query_freq_handler                   
43c0fb61  query_fw_caps_handler                
43c15a8c  ra_inst                              
43c1a0c4  ra_inst_count                        
43c0b03c  remove                               
43c158a0  resasg_indexer                       
43c07cc5  rm_core_get_resource_range           
43c0a8f1  rm_core_init                         
43c10731  rm_core_map_region                   
43c0c7f9  rm_core_param_is_valid               
43c0d219  rm_core_resasg_get_utype_index       
43c09871  rm_core_resasg_validate_resource     
43c1062d  rm_core_unmap_region                 
43c0ce79  rm_core_validate_devgrp              
43c08e95  rm_ia_init                           
43c0e915  rm_ia_is_managed_resasg_utype        
43c0fb89  rm_ia_validate_vint                  
43c0fe7d  rm_ia_vint_get_info                  
43c079b3  rm_ia_vint_map                       
43c080c5  rm_ia_vint_unmap                     
43c0f3fd  rm_init                              
43c0ad41  rm_ir_clear                          
43c06561  rm_ir_configure                      
43c0cee1  rm_ir_get_outp                       
43c0f159  rm_ir_init                           
43c0fbb1  rm_ir_is_managed_resasg_utype        
43c0fbd9  rm_ir_validate_output                
43c0fea1  rm_irq_init                          
43c0eb61  rm_irq_is_managed_resasg_utype       
43c0dd19  rm_irq_oes_src_register              
43c048b1  rm_irq_release                       
43c05111  rm_irq_set                           
43c01fdd  rm_ra_cfg                            
43c0c3cd  rm_ra_init                           
43c0c5b5  rm_ra_is_managed_resasg_utype        
43c088dd  rm_ra_mon_cfg                        
43c0a991  rm_ra_validate_ring_index            
43c03139  rm_udmap_flow_cfg                    
43c08b65  rm_udmap_flow_delegate               
43c0b4ed  rm_udmap_flow_size_thresh_cfg        
43c0629d  rm_udmap_gcfg_cfg                    
43c0a1ad  rm_udmap_init                        
43c0838d  rm_udmap_is_managed_resasg_utype     
43c00f2d  rm_udmap_rx_ch_cfg                   
43c00855  rm_udmap_tx_ch_cfg                   
43c164b8  selfcoreEntry                        
43c096f5  set_clock_handler                    
43c0bfe1  set_clock_parent_handler             
43c06401  set_device_handler                   
43c0d74d  set_device_resets_handler            
43c091ad  set_freq_handler                     
43c06bdc  setvbuf                              
43c10355  sleep_modes_register                 
43c1a0c8  soc_clock_count                      
43c164c0  soc_clock_data                       
43c18b1c  soc_clock_freq_defaults              
43c1904c  soc_clock_ranges                     
43c28c54  soc_clock_values                     
43c2823c  soc_clocks                           
43c1a0cc  soc_devgroup_count                   
43c18de4  soc_devgroups                        
43c1a0d0  soc_device_count                     
43c17910  soc_device_data_arr                  
43c0d7a9  soc_device_disable                   
43c0dd6d  soc_device_enable                    
43c0df61  soc_device_get_context_loss_count    
43c0ee85  soc_device_get_reset_iso             
43c0e3f9  soc_device_get_resets                
43c0d461  soc_device_get_state                 
43c099e9  soc_device_init                      
43c0c9bd  soc_device_init_complete             
43c0e445  soc_device_ret_disable               
43c0e491  soc_device_ret_enable                
43c0eba1  soc_device_set_reset_iso             
43c0dfb1  soc_device_set_resets                
43c28640  soc_devices                          
43c192a8  soc_fw_caps                          
43c186a7  soc_host_indexes                     
43c18471  soc_host_indexes_sz                  
43c18044  soc_pll_table                        
43c164c0  soc_psc_multiple_domains             
43c1021d  sys_reset_handler                    
43c07dc5  sys_reset_handler_register           
43c10655  system_reset                         
43c0ca2d  trace_debug                          
43c0f6d1  trace_debug_uart                     
43c09f95  trace_reconfigure                    
43c0510f  u32_get_bytes                        
43c1023b  u32map_get                           
43c15ca8  udmap_inst                           
43c1a0d8  udmap_inst_count                     
43c0e698  unlink                               
43c0ff31  vprintf_                             
43c0f430  write                                
43c04d01  xmodemReceive                        
43c05311  xmodemTransmit                       


GLOBAL SYMBOLS: SORTED BY Symbol Address 

address   name                                 
-------   ----                                 
00000100  __ABORT_STACK_SIZE                   
00000100  __FIQ_STACK_SIZE                     
00000100  __SVC_STACK_SIZE                     
00000100  __UNDEFINED_STACK_SIZE               
00001000  __IRQ_STACK_SIZE                     
00004000  __STACK_SIZE                         
00008000  __SYSMEM_SIZE                        
43c00000  __TI_static_base__                   
43c00000  _vectors                             
43c00040  _vectors_sbl                         
43c00100  __start___llvm_prf_bits              
43c00100  __start___llvm_prf_cnts              
43c00100  __stop___llvm_prf_bits               
43c00100  __stop___llvm_prf_cnts               
43c00101  pll_calc                             
43c00855  rm_udmap_tx_ch_cfg                   
43c00f2d  rm_udmap_rx_ch_cfg                   
43c01545  device_prepare_nonexclusive          
43c01ae7  clk_notify_children_freq             
43c01af1  UART_open                            
43c01fdb  ioremap_internal                     
43c01fdd  rm_ra_cfg                            
43c02799  clk_freq_change_allow                
43c02b29  clk_freq_change_block                
43c02e41  clk_div_set_freq                     
43c03139  rm_udmap_flow_cfg                    
43c03431  DDR_init                             
43c03a09  Sciclient_serviceSecureProxy         
43c03cd1  UART_read                            
43c041e3  mmr_lock_all                         
43c04689  devices_init                         
43c048b1  rm_irq_release                       
43c04ad4  malloc                               
43c04cfc  _nop                                 
43c04d01  xmodemReceive                        
43c04f11  UART_write                           
43c0510f  u32_get_bytes                        
43c05111  rm_irq_set                           
43c05311  xmodemTransmit                       
43c05505  Sciclient_service                    
43c056d1  Sciclient_init                       
43c05899  lpsc_module_get                      
43c058a1  TimerP_setup                         
43c05a60  aligned_alloc                        
43c05a60  memalign                             
43c05c18  free                                 
43c05f79  lpsc_module_get_module_reset         
43c05f81  DDR_programPLL                       
43c06121  Bootloader_verifyMulticoreImage      
43c0629d  rm_udmap_gcfg_cfg                    
43c06401  set_device_handler                   
43c06561  rm_ir_configure                      
43c066b9  UART_printf                          
43c06805  Sciclient_ProcessPmMessage           
43c06951  UART_close                           
43c06a99  clk_init                             
43c06bdc  setvbuf                              
43c06d21  SOC_moduleSetClockFrequency          
43c07431  LPDDR4_CheckCtlInterrupt             
43c07788  __udivmoddi4                         
43c078a1  LPDDR4_AckCtlInterrupt               
43c079b3  rm_ia_vint_map                       
43c07ac1  device_clk_get_parent                
43c07bc5  Sciclient_ProcessRmMessage           
43c07cc5  rm_core_get_resource_range           
43c07dc5  sys_reset_handler_register           
43c07dd1  ClockP_init                          
43c07ed1  main                                 
43c080c5  rm_ia_vint_unmap                     
43c081b9  clk_div_notify_freq                  
43c082a4  fputc                                
43c0838d  rm_udmap_is_managed_resasg_utype     
43c0855d  psc_pd_get                           
43c08641  clk_set_freq                         
43c08721  device_clk_set_gated                 
43c08801  lpsc_module_wait                     
43c088dd  rm_ra_mon_cfg                        
43c089b9  lpsc_module_put                      
43c089c1  Bootloader_rprcImageLoad             
43c08b65  rm_udmap_flow_delegate               
43c08d01  psc_pd_put                           
43c08dcc  getdevice                            
43c08e95  rm_ia_init                           
43c09025  device_clk_set_parent                
43c090e9  query_freq_handler                   
43c091ad  set_freq_handler                     
43c09271  Bootloader_parseMultiCoreAppImage    
43c09335  Sciclient_boardCfgParseHeader        
43c094b5  clk_set_parent                       
43c09575  get_clock_handler                    
43c096f5  set_clock_handler                    
43c097b5  Sciclient_pmQueryModuleClkFreq       
43c09871  rm_core_resasg_validate_resource     
43c099e9  soc_device_init                      
43c09aa1  map_add                              
43c09b57  pm_div64                             
43c09c0c  __TI_closefile                       
43c09cc1  clk_div_reg_go_set_div               
43c09d74  fseeko                               
43c09e29  pm_init                              
43c09ee1  UART_flushTxFifo                     
43c09f95  trace_reconfigure                    
43c0a051  boardcfg_rm_receive_and_validate     
43c0a1ad  rm_udmap_init                        
43c0a259  Sciclient_pmSetModuleClkFreq         
43c0a30d  device_clk_get_hw_ssc                
43c0a3bd  get_device_handler                   
43c0a50c  fseek                                
43c0a5b9  device_set_state                     
43c0a7b1  Bootloader_loadSelfCpu               
43c0a850  HOSTrename                           
43c0a8f1  rm_core_init                         
43c0a991  rm_ra_validate_ring_index            
43c0aad0  __TI_wrt_ok                          
43c0ab6d  clk_generic_set_freq_parent          
43c0aca5  psc_pd_wait                          
43c0ad41  rm_ir_clear                          
43c0addc  HOSTlseek                            
43c0ae75  Sciclient_serviceGetThreadIds        
43c0b03c  remove                               
43c0b041  SemaphoreP_pend                      
43c0b0e1  Bootloader_getMsgLen                 
43c0b174  HOSTopen                             
43c0b209  lpsc_module_ret_get                  
43c0b211  UART_init                            
43c0b339  lpsc_module_set_local_reset          
43c0b3c9  lpsc_module_ret_put                  
43c0b4ed  rm_udmap_flow_size_thresh_cfg        
43c0b608  close                                
43c0b720  __TI_doflush                         
43c0b7a9  lpsc_module_set_module_reset         
43c0b831  Sciclient_pmGetModuleClkNumParent    
43c0b8b7  Sciclient_pmGetModuleClkParent       
43c0b93c  HOSTread                             
43c0b9c0  HOSTwrite                            
43c0ba45  Sciclient_boardCfgPm                 
43c0bac9  Sciclient_boardCfgRm                 
43c0bb4d  Sciclient_pmGetModuleClkFreq         
43c0bbd1  Sciclient_pmModuleGetClkStatus       
43c0bc55  Sciclient_pmGetModuleState           
43c0bce1  Pinmux_config                        
43c0bde1  Sciclient_sendMessage                
43c0be61  clk_div_reg_set_div                  
43c0bfe1  set_clock_parent_handler             
43c0c061  Bootloader_socCpuSetClock            
43c0c0df  Sciclient_pmModuleClkRequest         
43c0c15d  Sciclient_pmSetModuleClkParent       
43c0c1dd  clk_notify_sibling_freq              
43c0c2d5  get_clock_parent_handler             
43c0c351  get_num_clock_parents_handler        
43c0c3cd  rm_ra_init                           
43c0c4c5  clk_get                              
43c0c53d  psc_drop_pwr_up_ref                  
43c0c5b5  rm_ra_is_managed_resasg_utype        
43c0c62d  Sciclient_servicePrepareHeader       
43c0c789  Sciclient_configPrmsInit             
43c0c7f9  rm_core_param_is_valid               
43c0c801  DDR_programHSDIV                     
43c0c871  LPDDR4_Start                         
43c0c8e1  SOC_moduleClockEnable                
43c0c9bd  soc_device_init_complete             
43c0c9c1  Bootloader_findSeq                   
43c0ca2d  trace_debug                          
43c0ca31  ClockP_timerTickIsr                  
43c0ca9c  HOSTunlink                           
43c0cb08  C$$EXIT                              
43c0cb08  abort                                
43c0cbe9  device_clk_init                      
43c0cc54  finddevice                           
43c0ccc1  get_dev_clk                          
43c0cd2d  lpsc_module_set_reset_iso            
43c0ce0c  __aeabi_memcpy                       
43c0ce0c  __aeabi_memcpy4                      
43c0ce0c  __aeabi_memcpy8                      
43c0ce11  AddrTranslateP_getLocalAddr          
43c0ce79  rm_core_validate_devgrp              
43c0cee1  rm_ir_get_outp                       
43c0cf51  Bootloader_socCpuGetClock            
43c0cfc1  Bootloader_socMemInitCpu             
43c0d025  Sciclient_procBootSetSequenceCtrl    
43c0d089  clk_div_reg_get_div                  
43c0d219  rm_core_resasg_get_utype_index       
43c0d27d  Sciclient_setDebugConfig             
43c0d2e0  HOSTclose                            
43c0d341  Sciclient_direct_init                
43c0d3a1  Sciclient_pmSetModuleState           
43c0d401  clk_notify_freq                      
43c0d461  soc_device_get_state                 
43c0d4c1  Sciclient_procBootAuthAndStart       
43c0d581  _DebugP_assert                       
43c0d5dd  clk_div_reg_go_get_div               
43c0d695  device_clk_get_hw_ready              
43c0d6f1  get_freq_handler                     
43c0d74d  set_device_resets_handler            
43c0d7a9  soc_device_disable                   
43c0d804  __TI_cleanup                         
43c0d85c  __TI_readmsg                         
43c0d8b4  __TI_writemsg                        
43c0d900  C$$IO$$                              
43c0d90d  lib_itoa                             
43c0d965  mmr_unlock_all                       
43c0d9bd  pll_init                             
43c0da71  UART_dmaDisableChannel               
43c0dac7  Sciclient_pmSetModuleRst             
43c0db21  UART_dmaClose                        
43c0db75  clk_div_init                         
43c0dbc9  device_clk_set_freq_change           
43c0dc1d  device_clk_set_ssc                   
43c0dc70  exit                                 
43c0dcc5  lpsc_module_get_local_reset          
43c0dd19  rm_irq_oes_src_register              
43c0dd6d  soc_device_enable                    
43c0de71  ClockP_construct                     
43c0dec1  Sciclient_serviceGetPayloadSize      
43c0df61  soc_device_get_context_loss_count    
43c0dfb1  soc_device_set_resets                
43c0e050  __TI_auto_init_nobinit_nopinit       
43c0e0a1  Bootloader_socTranslateSectionAddr   
43c0e0f1  LPDDR4_ReadReg                       
43c0e13f  Sciclient_abiCheck                   
43c0e1e1  ClockP_getTimeUsec                   
43c0e231  Drivers_uartOpen                     
43c0e27d  Sciclient_deinit                     
43c0e2c9  Sciclient_getDefaultBoardCfgInfo     
43c0e361  lpsc_module_get_reset_iso            
43c0e3f9  soc_device_get_resets                
43c0e445  soc_device_ret_disable               
43c0e491  soc_device_ret_enable                
43c0e4e1  SOC_controlModuleUnlockMMR           
43c0e531  LPDDR4_WritePhyIndepConfig           
43c0e579  Sciclient_getCurrentContext          
43c0e609  clk_put                              
43c0e651  get_dev_clk_data                     
43c0e698  unlink                               
43c0e6e1  LPDDR4_WritePhyConfig                
43c0e731  _inbyte                              
43c0e849  Sciclient_waitForBootNotification    
43c0e8d1  clk_get_state                        
43c0e915  rm_ia_is_managed_resasg_utype        
43c0e959  device_clk_disable                   
43c0e99b  device_clk_enable                    
43c0e9e1  ClockP_stop                          
43c0ea21  LPDDR4_WriteCtlConfig                
43c0ea61  SemaphoreP_constructBinary           
43c0eaa1  clk_get_parent                       
43c0eb61  rm_irq_is_managed_resasg_utype       
43c0eba1  soc_device_set_reset_iso             
43c0ec21  Bootloader_open                      
43c0ec61  SemaphoreP_constructMutex            
43c0ec9f  device_clk_get_num_parents           
43c0ed59  device_disable                       
43c0ee0d  mmr_unlock                           
43c0ee49  psc_lookup_lpsc                      
43c0ee85  soc_device_get_reset_iso             
43c0ef01  ClockP_destruct                      
43c0ef41  Dpl_init                             
43c0ef81  UART_dmaOpen                         
43c0efbb  boardcfg_pm_receive_and_validate     
43c0f001  Bootloader_getX509CertLen            
43c0f041  _DebugP_logZone                      
43c0f079  clk_drop_pwr_up_en                   
43c0f0e9  clk_value_set_freq                   
43c0f121  device_clk_get_freq                  
43c0f159  rm_ir_init                           
43c0f191  Module_clockSetFrequency             
43c0f1d1  _outbyte                             
43c0f211  ClockP_start                         
43c0f251  LPDDR4_EnablePIInitiator             
43c0f291  LPDDR4_PollCtlIrq                    
43c0f2f9  devices_init_rw                      
43c0f360  lseek                                
43c0f395  psc_lookup                           
43c0f3c9  psc_lookup_pd                        
43c0f3fd  rm_init                              
43c0f430  write                                
43c0f471  Bootloader_BootImageInfo_init        
43c0f4b1  Bootloader_xmodemReceive             
43c0f4f1  Bootloader_xmodemTransmit            
43c0f531  ClockP_usleep                        
43c0f571  SemaphoreP_post                      
43c0f5a3  device_set_retention                 
43c0f5e1  System_init                          
43c0f641  clk_get_freq                         
43c0f671  clk_get_parent_freq                  
43c0f6a1  clk_set_state                        
43c0f6d1  trace_debug_uart                     
43c0f701  App_loadSelfcoreImage                
43c0f761  Module_clockDisable                  
43c0f791  Module_clockEnable                   
43c0f7c1  UART_getHandle                       
43c0f81d  Sciclient_flush                      
43c0f849  clk_get_div                          
43c0f981  crc16_ccitt                          
43c0fa05  lpsc_module_get_state                
43c0fa31  SOC_controlModuleLockMMR             
43c0fb39  clk_value_get_freq                   
43c0fb61  query_fw_caps_handler                
43c0fb89  rm_ia_validate_vint                  
43c0fbb1  rm_ir_is_managed_resasg_utype        
43c0fbd9  rm_ir_validate_output                
43c0fc50  __aeabi_llsl                         
43c0fc50  __ashldi3                            
43c0fc78  __aeabi_llsr                         
43c0fc78  __lshrdi3                            
43c0fd39  Sciclient_waitThread                 
43c0fd5d  boardcfg_get_rm_devgrp               
43c0fdc9  device_prepare_exclusive             
43c0fded  device_suspend                       
43c0fe11  dmsc_init                            
43c0fe35  lpsc_module_idx                      
43c0fe59  osal_delay                           
43c0fe7d  rm_ia_vint_get_info                  
43c0fea1  rm_irq_init                          
43c0ff31  vprintf_                             
43c0ff54  __aeabi_uldivmod                     
43c0ff81  DDR_ResetDDR_PLL                     
43c0ffb1  Pinmux_init                          
43c0ffd3  clk_ssc_allow                        
43c0fff5  device_clk_set_input_term            
43c10081  Bootloader_socGetCoreName            
43c100a1  Bootloader_socRprcToCslCoreId        
43c100c1  DebugP_logZoneEnable                 
43c100e1  Sciclient_query_fw_caps_handler      
43c10101  System_deinit                        
43c10121  TimerP_Params_init                   
43c10161  clk_ssc_block                        
43c101e1  device_resource_mem                  
43c1021d  sys_reset_handler                    
43c1023b  u32map_get                           
43c10261  Bootloader_JumpSelfCpu               
43c10281  Bootloader_socCpuGetClkDefault       
43c102a1  Bootloader_socIsAuthRequired         
43c102dd  Sciclient_readThread32               
43c10301  _system_pre_init                     
43c10355  sleep_modes_register                 
43c1038c  TI_memcpy_small                      
43c103a8  __aeabi_memset                       
43c103a8  __aeabi_memset4                      
43c103a8  __aeabi_memset8                      
43c103b8  __aeabi_memclr                       
43c103b8  __aeabi_memclr4                      
43c103b8  __aeabi_memclr8                      
43c103d1  UART_deinit                          
43c103f1  UART_readInterruptDma                
43c10411  UART_writeInterruptDma               
43c1042b  notifier_call                        
43c10461  Bootloader_socAuthImage              
43c10481  Drivers_close                        
43c104a1  LPDDR4_Init                          
43c104b9  boardcfg_get_rm_resasg_size          
43c10501  dev_get_clk                          
43c10530  TI_memset_small                      
43c10549  clk_div_get_freq                     
43c10575  device_clk_set_freq                  
43c1058d  Sciclient_readThreadCount            
43c105a1  Sciclient_verifyThread               
43c105b5  boardcfg_get_rm_resasg               
43c105dd  device_clk_get_freq_change           
43c105f1  device_clk_get_input_term            
43c10605  device_clk_get_ssc                   
43c10619  device_clk_get_sw_gated              
43c1062d  rm_core_unmap_region                 
43c10655  system_reset                         
43c10671  TimerP_clearOverflowInt              
43c10691  Bootloader_close                     
43c106a1  ClockP_ticksToUsec                   
43c106b1  LPDDR4_Probe                         
43c106c1  Sciclient_threadStatusReg            
43c106e1  device_clk_query_freq                
43c10701  pm_devgroup_is_enabled               
43c10711  pm_devgroup_set_enabled              
43c10720  putchar                              
43c10731  rm_core_map_region                   
43c10741  Bootloader_socCpuSetEntryPoint       
43c10751  PowerClock_init                      
43c10761  Bootloader_Params_init               
43c10771  Bootloader_socSelfCPUjump            
43c10781  ClockP_getTicks                      
43c10791  Bootloader_socGetSBLMem              
43c107a1  CSL_secProxyGetDataAddr              
43c107b1  ClockP_Params_init                   
43c107c1  ClockP_isActive                      
43c107d1  TimerP_start                         
43c107f1  Board_driversOpen                    
43c10801  Bootloader_socWaitForFWBoot          
43c10811  CPS_UncachedRead32                   
43c10821  CPS_UncachedWrite32                  
43c10831  ClockP_getTimerCount                 
43c10841  ClockP_timerClearOverflowInt         
43c10851  Drivers_open                         
43c10881  PowerClock_deinit                    
43c10891  TimerP_getCount                      
43c108a1  TimerP_getReloadCount                
43c108b0  __aeabi_ldiv0                        
43c108c1  putchar_                             
43c108d1  DDR_socEnableVttRegulator            
43c108e1  Dpl_deinit                           
43c10901  SemaphoreP_destruct                  
43c10911  TaskP_yield                          
43c12061  HwiP_enableInt                       
43c12091  HwiP_disableInt                      
43c120d1  HwiP_restoreInt                      
43c12131  HwiP_clearInt                        
43c12151  HwiP_post                            
43c12181  HwiP_Params_init                     
43c121a1  HwiP_construct                       
43c122f1  HwiP_destruct                        
43c123d1  HwiP_init                            
43c124a1  HwiP_inISR                           
43c124c1  HwiP_irq_handler_c                   
43c12551  HwiP_fiq_handler                     
43c12611  HwiP_reserved_handler                
43c12641  HwiP_undefined_handler               
43c12671  HwiP_svc_handler                     
43c126a1  HwiP_prefetch_abort_handler          
43c126d1  HwiP_data_abort_handler              
43c12700  HwiP_irq_handler                     
43c12778  HwiP_disable                         
43c12788  HwiP_disableFIQ                      
43c12798  HwiP_enable                          
43c127a8  HwiP_enableFIQ                       
43c127b8  HwiP_restore                         
43c127c0  HwiP_enableVIC                       
43c127d0  HwiP_disableVIC                      
43c127e0  HwiP_getCPSR                         
43c127f0  CacheP_disableL1d                    
43c12818  CacheP_disableL1p                    
43c12830  CacheP_enableL1d                     
43c12848  CacheP_enableL1p                     
43c12860  CacheP_invL1d                        
43c12898  CacheP_invL1p                        
43c128d4  CacheP_invL1dAll                     
43c128dc  CacheP_invL1pAll                     
43c128e4  CacheP_wb                            
43c12920  CacheP_wbInv                         
43c1295c  CacheP_wbAll                         
43c12a04  CacheP_wbInvAll                      
43c12a1c  CacheP_wbInvAllAsm                   
43c12abc  CacheP_getEnabled                    
43c12af4  CacheP_getCacheLevelInfo             
43c12b00  CacheP_configForceWrThru             
43c12b20  CacheP_setDLFO                       
43c12b31  CacheP_init                          
43c12bb1  CacheP_disable                       
43c12bf1  CacheP_enable                        
43c12c11  CacheP_inv                           
43c12c51  MpuP_RegionAttrs_init                
43c12c61  MpuP_setRegion                       
43c12d11  MpuP_enable                          
43c12d51  MpuP_disable                         
43c12d91  MpuP_isEnable                        
43c12da1  MpuP_init                            
43c12e04  MpuP_disableAsm                      
43c12e1c  MpuP_disableBRAsm                    
43c12e2c  MpuP_enableAsm                       
43c12e44  MpuP_enableBRAsm                     
43c12e54  MpuP_isEnableAsm                     
43c12e68  MpuP_setRegionAsm                    
43c12e90  _c_int00_sbl                         
43c12eb4  _c_int00                             
43c12f91  _DebugP_assertNoLog                  
43c12fb1  __mpu_init                           
43c12fc0  gUartDmaConfig                       
43c13abc  DDRSS_phyReg                         
43c142a8  DDRSS_ctlReg                         
43c14944  DDRSS_phyIndepReg                    
43c14ea8  DDRSS_phyRegNum                      
43c1529e  DDRSS_ctlRegNum                      
43c155ec  DDRSS_phyIndepRegNum                 
43c158a0  resasg_indexer                       
43c15a8c  ra_inst                              
43c15bb8  _ftable                              
43c15ca8  udmap_inst                           
43c15d98  gAddrTranslateInfo                   
43c15e5c  gMpuRegionConfig                     
43c15f1c  gCoreBootInfo                        
43c16060  _device                              
43c160d8  ir_inst                              
43c1614c  gSciclientHandle                     
43c161a8  ia_inst                              
43c16204  gUartParams                          
43c1625c  _stream                              
43c162f4  __TI_ft_end                          
43c16328  gSciclientRomSecProxyCfg             
43c16348  gSciclient_secProxyCfg               
43c16368  gBootloaderConfig                    
43c16384  gClockConfig                         
43c163b4  gSocModulesClockFrequency            
43c163e4  gBootloaderMemFxns                   
43c163f8  gResMemSection                       
43c1641c  gSocModules                          
43c1642c  _lock                                
43c16430  gAddrTranslateConfig                 
43c1643c  gMpuConfig                           
43c16448  __TI_cleanup_ptr                     
43c1644c  __TI_dtors_ptr                       
43c16460  gBootloader0Args                     
43c16468  gCacheConfig                         
43c16480  gUartConfig                          
43c16488  _unlock                              
43c1648c  gBootloaderConfigNum                 
43c16490  gCacheL1dCacheLineSize               
43c16494  gCacheL1pCacheLineSize               
43c16498  gDebugLogZone                        
43c1649c  gHwiConfig                           
43c164a0  gUartConfigNum                       
43c164a4  gUartDmaConfigNum                    
43c164a8  operatingMode                        
43c164ac  pSciclient_secProxyCfg               
43c164b8  selfcoreEntry                        
43c164c0  soc_clock_data                       
43c164c0  soc_psc_multiple_domains             
43c17910  soc_device_data_arr                  
43c18042  irq_global_event_types_count         
43c18044  soc_pll_table                        
43c18471  soc_host_indexes_sz                  
43c186a7  soc_host_indexes                     
43c18898  gSciclientMap                        
43c18b1c  soc_clock_freq_defaults              
43c18d9c  gSOC_r5fVectors                      
43c18de4  soc_devgroups                        
43c18efa  ia_soc_pe_init_list                  
43c1904c  soc_clock_ranges                     
43c19074  clk_drv_div_fixed                    
43c19098  clk_drv_div_pll_16fft_hsdiv          
43c190bc  clk_drv_div_pll_16fft_postdiv        
43c190e0  clk_drv_div_reg                      
43c19104  clk_drv_div_reg_go                   
43c19168  clk_drv_mux_reg                      
43c19188  clk_drv_pllctrl_mux_reg_ro           
43c191a8  irq_global_event_types               
43c19218  clk_drv_fixed                        
43c19230  clk_drv_from_device                  
43c19248  clk_drv_pll_16fft                    
43c19260  clk_drv_soc_hfosc0                   
43c19278  clk_drv_soc_lfosc0                   
43c192a8  soc_fw_caps                          
43c19b30  psc_drv                              
43c19e50  gcSciclientDirectExtBootX509MagicWord
43c1a09c  evt_rt_srcs                          
43c1a0a0  evt_rt_srcs_count                    
43c1a0c4  ra_inst_count                        
43c1a0c8  soc_clock_count                      
43c1a0cc  soc_devgroup_count                   
43c1a0d0  soc_device_count                     
43c1a0d8  udmap_inst_count                     
43c1a100  gSciclient_boardCfgLow               
43c1a180  gSciclient_boardCfgLow_rm            
43c1a700  gSciclient_boardCfgLow_sec           
43c1a880  gSciclient_boardCfgLow_pm            
43c1a900  _sys_memory                          
43c22900  __stack                              
43c26900  __BSS_START                          
43c26900  __STACK_END                          
43c26900  gHwiCtrl                             
43c2823c  soc_clocks                           
43c28640  soc_devices                          
43c28c54  soc_clock_values                     
43c28df8  _CIOBUF_                             
43c28df8  __CIOBUF_                            
43c290e4  __TI_tmpnams                         
43c29184  _freertosresetvectors                
43c291c8  gClockCtrl                           
43c29224  parmbuf                              
43c29244  gUartHandle                          
43c29250  __BSS_END                            
43c29250  __IRQ_STACK_START                    
43c2a250  __FIQ_STACK_START                    
43c2a250  __IRQ_STACK_END                      
43c2a350  __FIQ_STACK_END                      
43c2a350  __SVC_STACK_START                    
43c2a450  __ABORT_STACK_START                  
43c2a450  __SVC_STACK_END                      
43c2a550  __ABORT_STACK_END                    
43c2a550  __UNDEFINED_STACK_START              
43c2a650  __UNDEFINED_STACK_END                
80000000  gUniflashFileBuf                     
ffffffff  __TI_pprof_out_hndl                  
ffffffff  __TI_prof_data_size                  
ffffffff  __TI_prof_data_start                 
ffffffff  __binit__                            
ffffffff  binit                                
UNDEFED   __TI_CINIT_Base                      
UNDEFED   __TI_CINIT_Limit                     
UNDEFED   __TI_Handler_Table_Base              
UNDEFED   __TI_Handler_Table_Limit             
UNDEFED   _system_post_cinit                   

[587 symbols]
